(dp1
S'output'
p2
S"<type 'exceptions.NameError'> name 'diffvideo' is not defined"
p3
sS'layer'
p4
S'/home/mtk/Dropbox/diff/newsite/web2py/applications/difflet/views/default/difflet.html'
p5
sS'code'
p6
S'response.write(\'<!DOCTYPE html>\\n<!--[if (gt IE 9)|!(IE)]><!--> <html class="no-js" lang="\', escape=False)\nresponse.write(T.accepted_language or \'en\')\nresponse.write(\'"> <!--<![endif]-->\\n  <head>\\n    <meta charset="utf-8">\\n    <!-- www.phpied.com/conditional-comments-block-downloads/ -->\\n    <!-- Always force latest IE rendering engine\\n         (even in intranet) & Chrome Frame\\n         Remove this if you use the .htaccess -->\\n    <meta http-equiv="X-UA-Compatible" content="IE=edge\', escape=False)\nresponse.write(not request.is_local and \',chrome=1\' or \'\')\nresponse.write(\'">\\n    <!--  Mobile Viewport Fix\\n          j.mp/mobileviewport & davidbcalhoun.com/2010/viewport-metatag\\n          device-width: Occupy full width of the screen in its current orientation\\n          initial-scale = 1.0 retains dimensions instead of zooming out if page height > device height\\n          user-scalable = yes allows the user to zoom in -->\\n    <meta name="viewport" content="width=device-width, initial-scale=1.0">\\n    <title>\', escape=False)\nresponse.write(response.title or request.application)\nresponse.write(\'</title>\\n    <!-- http://dev.w3.org/html5/markup/meta.name.html -->\\n    <meta name="application-name" content="\', escape=False)\nresponse.write(request.application)\nresponse.write(\'">\\n    <!-- Speaking of Google, don\\\'t forget to set your site up:\\n         http://google.com/webmasters -->\\n    <meta name="google-site-verification" content="">\\n    <!-- include stylesheets -->\\n    <link rel="stylesheet" href="\', escape=False)\nresponse.write(URL(\'static\',\'css/bootstrap.min.css\'))\nresponse.write(\'"/>\\n    <link rel="stylesheet" href="\', escape=False)\nresponse.write(URL(\'static\',\'css/web2py-bootstrap3.css\'))\nresponse.write(\'"/>\\n    <link rel="stylesheet" href="\', escape=False)\nresponse.write(URL(\'static\',\'css/difflet.css\'))\nresponse.write(\'"/>\\n    <link rel="shortcut icon" href="\', escape=False)\nresponse.write(URL(\'static\',\'images/favicon.ico\'))\nresponse.write(\'" type="image/x-icon">\\n    <link rel="apple-touch-icon" href="\', escape=False)\nresponse.write(URL(\'static\',\'images/favicon.png\'))\nresponse.write(\'">\\n    <!-- All JavaScript at the bottom, except for Modernizr which enables\\n         HTML5 elements & feature detects -->\\n    <script src="\', escape=False)\nresponse.write(URL(\'static\',\'js/modernizr-2.8.3.min.js\'))\nresponse.write(\'"></script>\\n    <!--[if lt IE 9]>\\n        <script src="\', escape=False)\nresponse.write(URL(\'static\',\'js/respond-1.4.2.min.js\'))\nresponse.write(\'"></script>\\n        <![endif]-->\\n    <!-- Favicons -->\\n    \', escape=False)\nresponse.write(\'<script type="text/javascript"><!--\\n    // These variables are used by the web2py_ajax_init function in web2py_ajax.js (which is loaded below).\\n    var w2p_ajax_confirm_message = "\', escape=False)\nresponse.write(T(\'Are you sure you want to delete this object?\'))\nresponse.write(\'";\\n    var w2p_ajax_disable_with_message = "\', escape=False)\nresponse.write(T(\'Working...\'))\nresponse.write(\'";\\n    var w2p_ajax_date_format = "\', escape=False)\nresponse.write(T(\'%Y-%m-%d\'))\nresponse.write(\'";\\n    var w2p_ajax_datetime_format = "\', escape=False)\nresponse.write(T(\'%Y-%m-%d %H:%M:%S\'))\nresponse.write(\'";\\n    var ajax_error_500 = \\\'\', escape=False)\nresponse.write(T.M(\'An error occured, please [[reload %s]] the page\') % URL(args=request.args, vars=request.get_vars))\nresponse.write("\'\\n    //--></script>\\n", escape=False)\nresponse.files.insert(0,URL(\'static\',\'js/jquery.js\'))\nresponse.files.insert(1,URL(\'static\',\'css/calendar.css\'))\nresponse.files.insert(2,URL(\'static\',\'js/calendar.js\'))\nresponse.files.insert(3,URL(\'static\',\'js/web2py.js\'))\nresponse.include_meta()\nresponse.include_files()\nresponse.write(\'\\n\', escape=False)\nresponse.write(\' <!-- this includes jquery.js, calendar.js/.css and web2py.js -->\\n    \', escape=False)\nresponse.write(\'\\n    \', escape=False)\n# using sidebars need to know what sidebar you want to use\nmc0 = \'col-md-12\'\nmc1 = \'col-md-9\'\nmc2 = \'col-md-6\'\nleft_sidebar_enabled = globals().get(\'left_sidebar_enabled\', False)\nright_sidebar_enabled = globals().get(\'right_sidebar_enabled\', False)\nmiddle_column = {0: mc0, 1: mc1, 2: mc2}[\n(left_sidebar_enabled and 1 or 0)+(right_sidebar_enabled and 1 or 0)]\nresponse.write(\'\\n  </head>\\n  <body>\\n    <!--[if lt IE 8]><p class="browserupgrade">You are using an <strong>outdated</strong> browser. Please <a href="http://browsehappy.com/">upgrade your browser</a> to improve your experience.</p><![endif]-->\\n    <div class="w2p_flash alert alert-dismissable">\', escape=False)\nresponse.write(response.flash or \'\')\nresponse.write(\'</div>\\n    <!-- Navbar ======================================= -->\\n    <nav class="navbar navbar-default navbar-fixed-top" role="navigation">\\n      <div class="container-fluid">\\n        <div class="navbar-header">\\n          <button type="button" class="navbar-toggle" data-toggle="collapse" data-target=".navbar-collapse">\\n            <span class="sr-only">Toggle navigation</span>\\n            <span class="icon-bar"></span>\\n            <span class="icon-bar"></span>\\n            <span class="icon-bar"></span>\\n          </button>\\n          \', escape=False)\nresponse.write(response.logo or \'\')\nresponse.write(\'\\n        </div>\\n        <div class="collapse navbar-collapse navbar-ex1-collapse">\\n          <ul class="nav navbar-nav navbar-right">\\n            \', escape=False)\nresponse.write(\'auth\' in globals() and auth.navbar(\'Welcome\',mode=\'dropdown\') or \'\')\nresponse.write(\'\\n          </ul>\\n          \', escape=False)\nif response.menu:\n    response.write(\'\\n          \', escape=False)\n    response.write(MENU(response.menu, _class=\'nav navbar-nav\',li_class=\'dropdown\',ul_class=\'dropdown-menu\'))\n    response.write(\'\\n          \', escape=False)\n    pass\nresponse.write(\'\\n        </div>\\n      </div>\\n    </nav>\\n    <!-- Masthead ===================================== -->\\n    \', escape=False)\nresponse.write(\'\\n    \', escape=False)\nresponse.write(\'\\n    <!-- Main ========================================= -->\\n    <!-- Begin page content -->\\n    <div class="container-fluid main-container">\\n      \', escape=False)\nif left_sidebar_enabled:\n    response.write(\'\\n        <div class="col-md-3 left-sidebar">\\n            \', escape=False)\n    response.write(\'\\n            <h3>Left Sidebar</h3>\\n            <p></p>\\n            \', escape=False)\n    response.write(\'\\n        </div>\\n      \', escape=False)\n    pass\nresponse.write(\'\\n\\n      <div class="\', escape=False)\nresponse.write(middle_column)\nresponse.write(\'">\\n        \', escape=False)\nresponse.write(\'\\n        \', escape=False)\nresponse.write(\'\\n\\n<div class="main">\\n  <div class="row heading">\\n    <div class="col-md-2"></div>\\n    <div class="col-md-4 leftPane">\', escape=False)\nresponse.write(e1)\nresponse.write(\'</div>\\n    <div class="col-md-4 hrightPane">\', escape=False)\nresponse.write(e2)\nresponse.write(\' </div>\\n  </div>\\n\\n  \', escape=False)\nif \'img\' in output:\n    response.write(\'\\n    <div class="row">\\n        <div class="col-md-4"></div>\\n        <div class="col-md-4 dp \', escape=False)\n    response.write(\'secondOnwards\' if i > 0 else \'firstdp\')\n    response.write(\'" data-id="\', escape=False)\n    response.write(i)\n    response.write(\'">\\n          <span class="btn btn-primary btn-large">Image</span>\\n        </div>\\n    </div>\\n\\n    <div class="row row\', escape=False)\n    response.write(i)\n    response.write(\'">\\n        <div class="col-md-2"></div>\\n        <div class="col-md-4 leftPane">\\n            <img src="\', escape=False)\n    response.write(output[\'img\'][0])\n    response.write(\'" />\\n        </div>\\n        <div class="col-md-4 rightPane">\\n            <img src="\', escape=False)\n    response.write(output[\'img\'][1])\n    response.write(\'" />\\n        </div>\\n        <div class="col-md-2"></div>\\n    </div>\\n    \', escape=False)\n    del output[\'img\']\n    response.write(\'\\n    \', escape=False)\n    pass\nresponse.write(\'\\n\\n\\n  \', escape=False)\ni=0\nresponse.write(\'\\n  \', escape=False)\nfor dp, value in output.iteritems():\n    response.write(\'\\n\\n    <div class="row">\\n        <div class="col-md-4"></div>\\n        <div class="col-md-4 dp \', escape=False)\n    response.write(\'secondOnwards\' if i > 0 else \'firstdp\')\n    response.write(\'"  data-id="\', escape=False)\n    response.write(i)\n    response.write(\'">\\n          <span class="btn btn-primary btn-large">\', escape=False)\n    response.write(dp.capitalize())\n    response.write(\'</span>\\n        </div>\\n    </div>\\n\\n    <div class="row row\', escape=False)\n    response.write(i)\n    response.write(\'">\\n        <div class="col-md-2"></div>\\n        <div class="col-md-4 leftPane">\\n            \', escape=False)\n    if dp == \'img\':\n        response.write(\'\\n                <img src="\', escape=False)\n        response.write(value[0])\n        response.write(\'" />\\n            \', escape=False)\n    else:\n        response.write(\'\\n                \', escape=False)\n        response.write(value[0])\n        response.write(\'\\n            \', escape=False)\n        pass\n    response.write(\'\\n        </div>\\n        <div class="col-md-4 rightPane">\\n            \', escape=False)\n    if dp == \'img\':\n        response.write(\'\\n                <img src="\', escape=False)\n        response.write(value[1])\n        response.write(\'" />\\n            \', escape=False)\n    else:\n        response.write(\'\\n                \', escape=False)\n        response.write(value[1])\n        response.write(\'\\n            \', escape=False)\n        pass\n    response.write(\'\\n        </div>\\n        <div class="col-md-2"></div>\\n\\n    </div>\\n    \', escape=False)\n    i+=1\n    response.write(\'\\n    \', escape=False)\n    pass\nresponse.write(\'\\n\\n\\n    <div class="row">\\n        <div class="col-md-4"></div>\\n        <div class="col-md-4 dp"  data-id="\', escape=False)\nresponse.write(i)\nresponse.write(\'">\\n          <span class="btn btn-primary btn-large">Video</span>\\n        </div>\\n    </div>\\n\\n    <div class="row row\', escape=False)\nresponse.write(i)\nresponse.write(\'">\\n        \', escape=False)\nif diffvideo :\n    response.write(\'\\n        <div class="col-md-2"></div>\\n        <div class="col-md-4 leftPane">\\n            <iframe width="350" height="197" src="https://www.youtube.com/embed/2B9cPKHCKlw?rel=0" frameborder="0" allowfullscreen></iframe>\\n        </div>\\n        <div class="col-md-4 rightPane">\\n            <iframe width="350" height="197" src="https://www.youtube.com/embed/2B9cPKHCKlw?rel=0" frameborder="0" allowfullscreen></iframe>\\n        </div>\\n        \', escape=False)\nelse:\n    response.write(\'\\n        <div class="col-md-8 col-md-offset-3">\\n            <iframe width="500" height="281" src="https://www.youtube.com/embed/2B9cPKHCKlw?rel=0" frameborder="0" allowfullscreen></iframe>\\n        </div>\\n\\n        \', escape=False)\n    pass\nresponse.write(\'\\n        <div class="col-md-2"></div>\\n    </div>\\n\\n\\n    <div class="row recent-popular-row">\\n\\n\\n    <div class="col-md-10 col-md-offset-1 popular_searches">\\n        <a href = "#" class = "list-group-item active">\\n            <b>Popular Searches</b>\\n        </a>\\n        \', escape=False)\nfor i in range(0):\n    response.write(\'\\n        <div class="boxes">\\n                <span id="diffbox" >\\n                <a href="\', escape=False)\n    response.write(URL(\'default\', \'difflet\', vars={\'e1\' : \'India\', \'e2\' : \'Australia\'}))\n    response.write(\'">\\n                <span class="box">\\n                    <span>India</span>\\n                    <span>-vs-</span>\\n                    <span>Australia</span>\\n                    <span class="hits">4</span>\\n                </span>\\n                </a>\\n                </span>\\n            </div>\\n        \', escape=False)\n    pass\nresponse.write(\'\\n        <div class="clear"></div>\\n    </div>\\n\\n    </div>\\n\\n\\n    <div class="row">\\n        <div class="col-md-4"></div>\\n        <div class="col-md-4 dp secondOnwards addDp">\\n            <!-- <div id="one" class="glyphicon glyphicon-plus"></div> -->\\n            \', escape=False)\nif auth.user is not None:\n    response.write(\'\\n            <div id="one" class="btn btn-primary btn-large glyphicon-plus"> <b>Add</b> </div>\\n            \', escape=False)\n    pass\nresponse.write(\'\\n            <div id="two">\\n                <div id="twow"> <span id="close">x</span> </div>\\n                <div id="form">\\n                    <form action="\', escape=False)\nresponse.write(URL(\'default\', \'addDiffPoint\'))\nresponse.write(\'" >\\n                        <input type="hidden" name="e1" value="\', escape=False)\nresponse.write(e1)\nresponse.write(\'">\\n                        <input type="hidden" name="e2" value="\', escape=False)\nresponse.write(e2)\nresponse.write(\'">\\n                        <div>Add differentiating point</div>\\n                        <div><input type="text" id="new_dp" name="new_dp"/></div>\\n                        <div>Enter value for each entity </div>\\n                        <div class="row" id="forme">\\n                            <div class="col-md-6"><b>\', escape=False)\nresponse.write(e1)\nresponse.write(\'</b></div>\\n                            <div class="col-md-6"><b>\', escape=False)\nresponse.write(e2)\nresponse.write(\'</b></div>\\n                        </div>\\n                        <div class="row">\\n                            <div class="col-md-6">\\n                                <input type="text" id="new_e1_dp" name="new_e1_dp" />\\n                            </div>\\n                            <div class="col-md-6">\\n                                <input type="text" id="new_e2_dp" name="new_e2_dp" />\\n                            </div>\\n                        </div>\\n                            <input type="submit" class="btn-primary"/>\\n\\n                    </form>\\n                </div>\\n            </div>\\n        </div>\\n    </div>\\n\\n</div>\\n\\n\\n\\n<script>\\ndone=0\\n$(\\\'#one\\\').on(\\\'click\\\', function() {\\n    console.log(\\\'here one is\\\');\\n    if (done == 0) {\\n        $(\\\'#two\\\').show();\\n        $(\\\'#two\\\').animate({\\\'top\\\' : \\\'-=60px\\\'}, 120);\\n        done=1;\\n    }\\n});\\n\\n$(\\\'#close\\\').on(\\\'click\\\', function() {\\n    done=0;\\n    console.log(\\\'closing div two\\\');\\n    $("#two").css(\\\'top\\\',\\\'+=60px\\\');\\n    $(\\\'#two\\\').hide();\\n});\\n\\n</script>\\n\', escape=False)\nresponse.write(\'\\n        \', escape=False)\nresponse.write(\'\\n      </div>\\n\\n      \', escape=False)\nif right_sidebar_enabled:\n    response.write(\'\\n        <div class="col-md-3">\\n            \', escape=False)\n    response.write(\'\\n            <h3>Right Sidebar</h3>\\n            <p></p>\\n            \', escape=False)\n    response.write(\'\\n        </div>\\n      \', escape=False)\n    pass\nresponse.write(\'\\n\\n    </div>\\n\\n    \', escape=False)\nresponse.write(\' <!-- this is default footer -->\\n    <footer class="footer">\\n      <div class="container-fluid">\\n        <div class="copyright pull-left">\', escape=False)\nresponse.write(T(\'Copyright\'))\nresponse.write(\' &#169; \', escape=False)\nresponse.write(request.now.year)\nresponse.write(\'</div>\\n      </div>\\n    </footer>\\n    \', escape=False)\nresponse.write(\'\\n    <!-- The javascript =============================== -->\\n    <script src="\', escape=False)\nresponse.write(URL(\'static\',\'js/bootstrap.min.js\'))\nresponse.write(\'"></script>\\n    <script src="\', escape=False)\nresponse.write(URL(\'static\',\'js/web2py-bootstrap3.js\'))\nresponse.write(\'"></script>\\n    <script src="\', escape=False)\nresponse.write(URL(\'static\',\'js/difflet.js\'))\nresponse.write(\'"></script>\\n    \', escape=False)\nresponse.write(\'\\n    \', escape=False)\nif response.google_analytics_id:\n    response.write(\'\\n    <!-- Analytics ==================================== -->\\n    <script src="\', escape=False)\n    response.write(URL(\'static\',\'js/analytics.min.js\'))\n    response.write(\'"></script>\\n    <script type="text/javascript">\\n      analytics.initialize({\\n      \\\'Google Analytics\\\':{trackingId:\\\'\', escape=False)\n    response.write(response.google_analytics_id)\n    response.write("\'}\\n      });\\n    </script>\\n    ", escape=False)\n    pass\nresponse.write(\'\\n    <!-- Share ============================y============ -->\\n    <script src="\', escape=False)\nresponse.write(URL(\'static\',\'js/share.js\',vars=dict(static=URL(\'static\',\'images\'))))\nresponse.write(\'"></script>\\n  </body>\\n</html>\\n\', escape=False)'
p7
sS'snapshot'
p8
(dp9
S'exception'
p10
(dp11
S'__hash__'
p12
S"<method-wrapper '__hash__' of exceptions.NameError object>"
p13
sS'__setattr__'
p14
S"<method-wrapper '__setattr__' of exceptions.NameError object>"
p15
sS'__reduce_ex__'
p16
S'<built-in method __reduce_ex__ of exceptions.NameError object>'
p17
sS'__getslice__'
p18
S"<method-wrapper '__getslice__' of exceptions.NameError object>"
p19
sS'__getitem__'
p20
S"<method-wrapper '__getitem__' of exceptions.NameError object>"
p21
sS'__setstate__'
p22
S'<built-in method __setstate__ of exceptions.NameError object>'
p23
sS'__reduce__'
p24
S'<built-in method __reduce__ of exceptions.NameError object>'
p25
sS'__str__'
p26
S"<method-wrapper '__str__' of exceptions.NameError object>"
p27
sS'__format__'
p28
S'<built-in method __format__ of exceptions.NameError object>'
p29
sS'__getattribute__'
p30
S"<method-wrapper '__getattribute__' of exceptions.NameError object>"
p31
sS'__class__'
p32
S"<type 'exceptions.NameError'>"
p33
sS'__unicode__'
p34
S'<built-in method __unicode__ of exceptions.NameError object>'
p35
sS'__delattr__'
p36
S"<method-wrapper '__delattr__' of exceptions.NameError object>"
p37
sS'__subclasshook__'
p38
S'<built-in method __subclasshook__ of type object>'
p39
sS'__repr__'
p40
S"<method-wrapper '__repr__' of exceptions.NameError object>"
p41
sS'args'
p42
S'("name \'diffvideo\' is not defined",)'
p43
sS'__dict__'
p44
S'{}'
p45
sS'__sizeof__'
p46
S'<built-in method __sizeof__ of exceptions.NameError object>'
p47
sS'__doc__'
p48
S"'Name not found globally.'"
p49
sS'__init__'
p50
S"<method-wrapper '__init__' of exceptions.NameError object>"
p51
sS'__new__'
p52
S'<built-in method __new__ of type object>'
p53
ssS'evalue'
p54
S"name 'diffvideo' is not defined"
p55
sS'request'
p56
cgluon.html
XML_unpickle
p57
(S'sI]\x00\x00<div><table><tr><td style="font-weight:bold;vertical-align:top;">ajax</td><td style="vertical-align:top;">:</td><td><div>False</div></td></tr><tr><td style="font-weight:bold;vertical-align:top;">application</td><td style="vertical-align:top;">:</td><td><div>difflet</div></td></tr><tr><td style="font-weight:bold;vertical-align:top;">args</td><td style="vertical-align:top;">:</td><td><div><table></table></div></td></tr><tr><td style="font-weight:bold;vertical-align:top;">cid</td><td style="vertical-align:top;">:</td><td><div>None</div></td></tr><tr><td style="font-weight:bold;vertical-align:top;">client</td><td style="vertical-align:top;">:</td><td><div>127.0.0.1</div></td></tr><tr><td style="font-weight:bold;vertical-align:top;">controller</td><td style="vertical-align:top;">:</td><td><div>default</div></td></tr><tr><td style="font-weight:bold;vertical-align:top;">cookies</td><td style="vertical-align:top;">:</td><td><div><table><tr><td style="font-weight:bold;vertical-align:top;">session_id_admin</td><td style="vertical-align:top;">:</td><td><div>127.0.0.1-e36b403c-e4c4-474d-894e-5abb870286c5<table><tr><td style="font-weight:bold;vertical-align:top;">comment</td><td style="vertical-align:top;">:</td><td><div></div></td></tr><tr><td style="font-weight:bold;vertical-align:top;">domain</td><td style="vertical-align:top;">:</td><td><div></div></td></tr><tr><td style="font-weight:bold;vertical-align:top;">expires</td><td style="vertical-align:top;">:</td><td><div></div></td></tr><tr><td style="font-weight:bold;vertical-align:top;">httponly</td><td style="vertical-align:top;">:</td><td><div></div></td></tr><tr><td style="font-weight:bold;vertical-align:top;">max-age</td><td style="vertical-align:top;">:</td><td><div></div></td></tr><tr><td style="font-weight:bold;vertical-align:top;">path</td><td style="vertical-align:top;">:</td><td><div></div></td></tr><tr><td style="font-weight:bold;vertical-align:top;">secure</td><td style="vertical-align:top;">:</td><td><div></div></td></tr><tr><td style="font-weight:bold;vertical-align:top;">version</td><td style="vertical-align:top;">:</td><td><div></div></td></tr></table></div></td></tr><tr><td style="font-weight:bold;vertical-align:top;">session_id_difflet</td><td style="vertical-align:top;">:</td><td><div>127.0.0.1-08af35b1-ac57-4a63-a641-a4ad222e8f82<table><tr><td style="font-weight:bold;vertical-align:top;">comment</td><td style="vertical-align:top;">:</td><td><div></div></td></tr><tr><td style="font-weight:bold;vertical-align:top;">domain</td><td style="vertical-align:top;">:</td><td><div></div></td></tr><tr><td style="font-weight:bold;vertical-align:top;">expires</td><td style="vertical-align:top;">:</td><td><div></div></td></tr><tr><td style="font-weight:bold;vertical-align:top;">httponly</td><td style="vertical-align:top;">:</td><td><div></div></td></tr><tr><td style="font-weight:bold;vertical-align:top;">max-age</td><td style="vertical-align:top;">:</td><td><div></div></td></tr><tr><td style="font-weight:bold;vertical-align:top;">path</td><td style="vertical-align:top;">:</td><td><div></div></td></tr><tr><td style="font-weight:bold;vertical-align:top;">secure</td><td style="vertical-align:top;">:</td><td><div></div></td></tr><tr><td style="font-weight:bold;vertical-align:top;">version</td><td style="vertical-align:top;">:</td><td><div></div></td></tr></table></div></td></tr><tr><td style="font-weight:bold;vertical-align:top;">session_id_welcome</td><td style="vertical-align:top;">:</td><td><div>127.0.0.1-86925ee1-2a05-4cea-ba34-504c6369f4ec<table><tr><td style="font-weight:bold;vertical-align:top;">comment</td><td style="vertical-align:top;">:</td><td><div></div></td></tr><tr><td style="font-weight:bold;vertical-align:top;">domain</td><td style="vertical-align:top;">:</td><td><div></div></td></tr><tr><td style="font-weight:bold;vertical-align:top;">expires</td><td style="vertical-align:top;">:</td><td><div></div></td></tr><tr><td style="font-weight:bold;vertical-align:top;">httponly</td><td style="vertical-align:top;">:</td><td><div></div></td></tr><tr><td style="font-weight:bold;vertical-align:top;">max-age</td><td style="vertical-align:top;">:</td><td><div></div></td></tr><tr><td style="font-weight:bold;vertical-align:top;">path</td><td style="vertical-align:top;">:</td><td><div></div></td></tr><tr><td style="font-weight:bold;vertical-align:top;">secure</td><td style="vertical-align:top;">:</td><td><div></div></td></tr><tr><td style="font-weight:bold;vertical-align:top;">version</td><td style="vertical-align:top;">:</td><td><div></div></td></tr></table></div></td></tr></table></div></td></tr><tr><td style="font-weight:bold;vertical-align:top;">env</td><td style="vertical-align:top;">:</td><td><div><table><tr><td style="font-weight:bold;vertical-align:top;">HTTP_ACCEPT</td><td style="vertical-align:top;">:</td><td><div>text/html,application/xhtml+xml,application/xml;q=0.9,image/webp,*/*;q=0.8</div></td></tr><tr><td style="font-weight:bold;vertical-align:top;">HTTP_ACCEPT_ENCODING</td><td style="vertical-align:top;">:</td><td><div>gzip, deflate, sdch</div></td></tr><tr><td style="font-weight:bold;vertical-align:top;">HTTP_ACCEPT_LANGUAGE</td><td style="vertical-align:top;">:</td><td><div>en-US,en;q=0.8</div></td></tr><tr><td style="font-weight:bold;vertical-align:top;">HTTP_CACHE_CONTROL</td><td style="vertical-align:top;">:</td><td><div>max-age=0</div></td></tr><tr><td style="font-weight:bold;vertical-align:top;">HTTP_CONNECTION</td><td style="vertical-align:top;">:</td><td><div>keep-alive</div></td></tr><tr><td style="font-weight:bold;vertical-align:top;">HTTP_COOKIE</td><td style="vertical-align:top;">:</td><td><div>session_id_welcome=127.0.0.1-86925ee1-2a05-4cea-ba34-504c6369f4ec; session_id_admin=127.0.0.1-e36b403c-e4c4-474d-894e-5abb870286c5; session_id_difflet=127.0.0.1-08af35b1-ac57-4a63-a641-a4ad222e8f82</div></td></tr><tr><td style="font-weight:bold;vertical-align:top;">HTTP_DNT</td><td style="vertical-align:top;">:</td><td><div>1</div></td></tr><tr><td style="font-weight:bold;vertical-align:top;">HTTP_HOST</td><td style="vertical-align:top;">:</td><td><div>127.0.0.1:8000</div></td></tr><tr><td style="font-weight:bold;vertical-align:top;">HTTP_UPGRADE_INSECURE_REQUESTS</td><td style="vertical-align:top;">:</td><td><div>1</div></td></tr><tr><td style="font-weight:bold;vertical-align:top;">HTTP_USER_AGENT</td><td style="vertical-align:top;">:</td><td><div>Mozilla/5.0 (X11; Linux i686) AppleWebKit/537.36 (KHTML, like Gecko) Ubuntu Chromium/52.0.2743.116 Chrome/52.0.2743.116 Safari/537.36</div></td></tr><tr><td style="font-weight:bold;vertical-align:top;">PATH_INFO</td><td style="vertical-align:top;">:</td><td><div>/difflet/default/difflet</div></td></tr><tr><td style="font-weight:bold;vertical-align:top;">QUERY_STRING</td><td style="vertical-align:top;">:</td><td><div>e1=India&amp;e2=USA</div></td></tr><tr><td style="font-weight:bold;vertical-align:top;">REMOTE_ADDR</td><td style="vertical-align:top;">:</td><td><div>127.0.0.1</div></td></tr><tr><td style="font-weight:bold;vertical-align:top;">REMOTE_PORT</td><td style="vertical-align:top;">:</td><td><div>48238</div></td></tr><tr><td style="font-weight:bold;vertical-align:top;">REQUEST_METHOD</td><td style="vertical-align:top;">:</td><td><div>GET</div></td></tr><tr><td style="font-weight:bold;vertical-align:top;">SCRIPT_NAME</td><td style="vertical-align:top;">:</td><td><div></div></td></tr><tr><td style="font-weight:bold;vertical-align:top;">SERVER_NAME</td><td style="vertical-align:top;">:</td><td><div>mtk-Inspiron-1525</div></td></tr><tr><td style="font-weight:bold;vertical-align:top;">SERVER_PORT</td><td style="vertical-align:top;">:</td><td><div>8000</div></td></tr><tr><td style="font-weight:bold;vertical-align:top;">SERVER_PROTOCOL</td><td style="vertical-align:top;">:</td><td><div>HTTP/1.1</div></td></tr><tr><td style="font-weight:bold;vertical-align:top;">SERVER_SOFTWARE</td><td style="vertical-align:top;">:</td><td><div>Rocket 1.2.6</div></td></tr><tr><td style="font-weight:bold;vertical-align:top;">app_folders</td><td style="vertical-align:top;">:</td><td><div>set([&#x27;/home/mtk/Dropbox/diff/newsite/web2py/applications/difflet/&#x27;, &#x27;/home/mtk/Dropbox/diff/newsite/web2py/applications/admin/&#x27;, &#x27;/home/mtk/Dropbox/diff/newsite/web2py/applications/welcome/&#x27;])</div></td></tr><tr><td style="font-weight:bold;vertical-align:top;">applications_parent</td><td style="vertical-align:top;">:</td><td><div>/home/mtk/Dropbox/diff/newsite/web2py</div></td></tr><tr><td style="font-weight:bold;vertical-align:top;">cmd_args</td><td style="vertical-align:top;">:</td><td><div><table></table></div></td></tr><tr><td style="font-weight:bold;vertical-align:top;">cmd_options</td><td style="vertical-align:top;">:</td><td><div>&lt;Values at 0xb60da38c: {&#x27;verbose&#x27;: False, &#x27;ip&#x27;: &#x27;127.0.0.1&#x27;, &#x27;debuglevel&#x27;: 30, &#x27;with_scheduler&#x27;: False, &#x27;shutdown_timeout&#x27;: 5, &#x27;taskbar&#x27;: False, &#x27;with_coverage&#x27;: False, &#x27;pid_filename&#x27;: &#x27;httpserver.pid&#x27;, &#x27;maxthreads&#x27;: None, &#x27;softcron&#x27;: False, &#x27;server_name&#x27;: &#x27;mtk-Inspiron-1525&#x27;, &#x27;bpython&#x27;: False, &#x27;nogui&#x27;: False, &#x27;port&#x27;: 8000, &#x27;print_errors&#x27;: False, &#x27;extcron&#x27;: False, &#x27;runcron&#x27;: False, &#x27;run_system_tests&#x27;: False, &#x27;test&#x27;: None, &#x27;folder&#x27;: &#x27;/home/mtk/Dropbox/diff/newsite/web2py&#x27;, &#x27;config&#x27;: &#x27;&#x27;, &#x27;minthreads&#x27;: None, &#x27;shell&#x27;: None, &#x27;run&#x27;: &#x27;&#x27;, &#x27;log_filename&#x27;: &#x27;httpserver.log&#x27;, &#x27;profiler_dir&#x27;: None, &#x27;args&#x27;: [&#x27;&#x27;], &#x27;socket_timeout&#x27;: 5, &#x27;ssl_ca_certificate&#x27;: None, &#x27;scheduler&#x27;: None, &#x27;interfaces&#x27;: None, &#x27;ssl_private_key&#x27;: &#x27;&#x27;, &#x27;gae&#x27;: None, &#x27;password&#x27;: &#x27;******&#x27;, &#x27;request_queue_size&#x27;: 5, &#x27;ssl_certificate&#x27;: &#x27;&#x27;, &#x27;cronjob&#x27;: False, &#x27;numthreads&#x27;: None, &#x27;quiet&#x27;: False, &#x27;import_models&#x27;: False, &#x27;timeout&#x27;: 10, &#x27;plain&#x27;: False, &#x27;nobanner&#x27;: False}&gt;</div></td></tr><tr><td style="font-weight:bold;vertical-align:top;">db_sessions</td><td style="vertical-align:top;">:</td><td><div>set([])</div></td></tr><tr><td style="font-weight:bold;vertical-align:top;">debugging</td><td style="vertical-align:top;">:</td><td><div>True</div></td></tr><tr><td style="font-weight:bold;vertical-align:top;">gluon_parent</td><td style="vertical-align:top;">:</td><td><div>/home/mtk/Dropbox/diff/newsite/web2py</div></td></tr><tr><td style="font-weight:bold;vertical-align:top;">http_accept</td><td style="vertical-align:top;">:</td><td><div>text/html,application/xhtml+xml,application/xml;q=0.9,image/webp,*/*;q=0.8</div></td></tr><tr><td style="font-weight:bold;vertical-align:top;">http_accept_encoding</td><td style="vertical-align:top;">:</td><td><div>gzip, deflate, sdch</div></td></tr><tr><td style="font-weight:bold;vertical-align:top;">http_accept_language</td><td style="vertical-align:top;">:</td><td><div>en-US,en;q=0.8</div></td></tr><tr><td style="font-weight:bold;vertical-align:top;">http_cache_control</td><td style="vertical-align:top;">:</td><td><div>max-age=0</div></td></tr><tr><td style="font-weight:bold;vertical-align:top;">http_connection</td><td style="vertical-align:top;">:</td><td><div>keep-alive</div></td></tr><tr><td style="font-weight:bold;vertical-align:top;">http_cookie</td><td style="vertical-align:top;">:</td><td><div>session_id_welcome=127.0.0.1-86925ee1-2a05-4cea-ba34-504c6369f4ec; session_id_admin=127.0.0.1-e36b403c-e4c4-474d-894e-5abb870286c5; session_id_difflet=127.0.0.1-08af35b1-ac57-4a63-a641-a4ad222e8f82</div></td></tr><tr><td style="font-weight:bold;vertical-align:top;">http_dnt</td><td style="vertical-align:top;">:</td><td><div>1</div></td></tr><tr><td style="font-weight:bold;vertical-align:top;">http_host</td><td style="vertical-align:top;">:</td><td><div>127.0.0.1:8000</div></td></tr><tr><td style="font-weight:bold;vertical-align:top;">http_upgrade_insecure_requests</td><td style="vertical-align:top;">:</td><td><div>1</div></td></tr><tr><td style="font-weight:bold;vertical-align:top;">http_user_agent</td><td style="vertical-align:top;">:</td><td><div>Mozilla/5.0 (X11; Linux i686) AppleWebKit/537.36 (KHTML, like Gecko) Ubuntu Chromium/52.0.2743.116 Chrome/52.0.2743.116 Safari/537.36</div></td></tr><tr><td style="font-weight:bold;vertical-align:top;">is_jython</td><td style="vertical-align:top;">:</td><td><div>False</div></td></tr><tr><td style="font-weight:bold;vertical-align:top;">is_pypy</td><td style="vertical-align:top;">:</td><td><div>False</div></td></tr><tr><td style="font-weight:bold;vertical-align:top;">is_source</td><td style="vertical-align:top;">:</td><td><div>True</div></td></tr><tr><td style="font-weight:bold;vertical-align:top;">local_hosts</td><td style="vertical-align:top;">:</td><td><div><table><tr><td><div>::1</div></td></tr><tr><td><div>127.0.1.1</div></td></tr><tr><td><div>mtk-Inspiron-1525</div></td></tr><tr><td><div>::ffff:127.0.0.1</div></td></tr><tr><td><div>127.0.0.1</div></td></tr></table></div></td></tr><tr><td style="font-weight:bold;vertical-align:top;">path_info</td><td style="vertical-align:top;">:</td><td><div>/difflet/default/difflet</div></td></tr><tr><td style="font-weight:bold;vertical-align:top;">query_string</td><td style="vertical-align:top;">:</td><td><div>e1=India&amp;e2=USA</div></td></tr><tr><td style="font-weight:bold;vertical-align:top;">remote_addr</td><td style="vertical-align:top;">:</td><td><div>127.0.0.1</div></td></tr><tr><td style="font-weight:bold;vertical-align:top;">remote_port</td><td style="vertical-align:top;">:</td><td><div>48238</div></td></tr><tr><td style="font-weight:bold;vertical-align:top;">request_method</td><td style="vertical-align:top;">:</td><td><div>GET</div></td></tr><tr><td style="font-weight:bold;vertical-align:top;">request_uri</td><td style="vertical-align:top;">:</td><td><div>/difflet/default/difflet?e1=India&amp;e2=USA</div></td></tr><tr><td style="font-weight:bold;vertical-align:top;">script_name</td><td style="vertical-align:top;">:</td><td><div></div></td></tr><tr><td style="font-weight:bold;vertical-align:top;">server_name</td><td style="vertical-align:top;">:</td><td><div>mtk-Inspiron-1525</div></td></tr><tr><td style="font-weight:bold;vertical-align:top;">server_port</td><td style="vertical-align:top;">:</td><td><div>8000</div></td></tr><tr><td style="font-weight:bold;vertical-align:top;">server_protocol</td><td style="vertical-align:top;">:</td><td><div>HTTP/1.1</div></td></tr><tr><td style="font-weight:bold;vertical-align:top;">server_software</td><td style="vertical-align:top;">:</td><td><div>Rocket 1.2.6</div></td></tr><tr><td style="font-weight:bold;vertical-align:top;">web2py_path</td><td style="vertical-align:top;">:</td><td><div>/home/mtk/Dropbox/diff/newsite/web2py</div></td></tr><tr><td style="font-weight:bold;vertical-align:top;">web2py_version</td><td style="vertical-align:top;">:</td><td><div>2.14.6-stable+timestamp.2016.05.10.00.21.47</div></td></tr><tr><td style="font-weight:bold;vertical-align:top;">wsgi.errors</td><td style="vertical-align:top;">:</td><td><div>&lt;open file &#x27;&lt;stderr&gt;&#x27;, mode &#x27;w&#x27; at 0xb739e0d0&gt;</div></td></tr><tr><td style="font-weight:bold;vertical-align:top;">wsgi.file_wrapper</td><td style="vertical-align:top;">:</td><td><div>&lt;class wsgiref.util.FileWrapper at 0xb611ae0c&gt;</div></td></tr><tr><td style="font-weight:bold;vertical-align:top;">wsgi.input</td><td style="vertical-align:top;">:</td><td><div>&lt;socket._fileobject object at 0xaf699dec&gt;</div></td></tr><tr><td style="font-weight:bold;vertical-align:top;">wsgi.multiprocess</td><td style="vertical-align:top;">:</td><td><div>False</div></td></tr><tr><td style="font-weight:bold;vertical-align:top;">wsgi.multithread</td><td style="vertical-align:top;">:</td><td><div>True</div></td></tr><tr><td style="font-weight:bold;vertical-align:top;">wsgi.run_once</td><td style="vertical-align:top;">:</td><td><div>False</div></td></tr><tr><td style="font-weight:bold;vertical-align:top;">wsgi.url_scheme</td><td style="vertical-align:top;">:</td><td><div>http</div></td></tr><tr><td style="font-weight:bold;vertical-align:top;">wsgi.version</td><td style="vertical-align:top;">:</td><td><div><table><tr><td><div>1</div></td></tr><tr><td><div>0</div></td></tr></table></div></td></tr><tr><td style="font-weight:bold;vertical-align:top;">wsgi_errors</td><td style="vertical-align:top;">:</td><td><div>&lt;open file &#x27;&lt;stderr&gt;&#x27;, mode &#x27;w&#x27; at 0xb739e0d0&gt;</div></td></tr><tr><td style="font-weight:bold;vertical-align:top;">wsgi_file_wrapper</td><td style="vertical-align:top;">:</td><td><div>&lt;class wsgiref.util.FileWrapper at 0xb611ae0c&gt;</div></td></tr><tr><td style="font-weight:bold;vertical-align:top;">wsgi_input</td><td style="vertical-align:top;">:</td><td><div>&lt;socket._fileobject object at 0xaf699dec&gt;</div></td></tr><tr><td style="font-weight:bold;vertical-align:top;">wsgi_multiprocess</td><td style="vertical-align:top;">:</td><td><div>False</div></td></tr><tr><td style="font-weight:bold;vertical-align:top;">wsgi_multithread</td><td style="vertical-align:top;">:</td><td><div>True</div></td></tr><tr><td style="font-weight:bold;vertical-align:top;">wsgi_run_once</td><td style="vertical-align:top;">:</td><td><div>False</div></td></tr><tr><td style="font-weight:bold;vertical-align:top;">wsgi_url_scheme</td><td style="vertical-align:top;">:</td><td><div>http</div></td></tr><tr><td style="font-weight:bold;vertical-align:top;">wsgi_version</td><td style="vertical-align:top;">:</td><td><div><table><tr><td><div>1</div></td></tr><tr><td><div>0</div></td></tr></table></div></td></tr></table></div></td></tr><tr><td style="font-weight:bold;vertical-align:top;">extension</td><td style="vertical-align:top;">:</td><td><div>html</div></td></tr><tr><td style="font-weight:bold;vertical-align:top;">folder</td><td style="vertical-align:top;">:</td><td><div>/home/mtk/Dropbox/diff/newsite/web2py/applications/difflet/</div></td></tr><tr><td style="font-weight:bold;vertical-align:top;">function</td><td style="vertical-align:top;">:</td><td><div>difflet</div></td></tr><tr><td style="font-weight:bold;vertical-align:top;">global_settings</td><td style="vertical-align:top;">:</td><td><div><table><tr><td style="font-weight:bold;vertical-align:top;">app_folders</td><td style="vertical-align:top;">:</td><td><div>set([&#x27;/home/mtk/Dropbox/diff/newsite/web2py/applications/difflet/&#x27;, &#x27;/home/mtk/Dropbox/diff/newsite/web2py/applications/admin/&#x27;, &#x27;/home/mtk/Dropbox/diff/newsite/web2py/applications/welcome/&#x27;])</div></td></tr><tr><td style="font-weight:bold;vertical-align:top;">applications_parent</td><td style="vertical-align:top;">:</td><td><div>/home/mtk/Dropbox/diff/newsite/web2py</div></td></tr><tr><td style="font-weight:bold;vertical-align:top;">cmd_args</td><td style="vertical-align:top;">:</td><td><div><table></table></div></td></tr><tr><td style="font-weight:bold;vertical-align:top;">cmd_options</td><td style="vertical-align:top;">:</td><td><div>&lt;Values at 0xb60da38c: {&#x27;verbose&#x27;: False, &#x27;ip&#x27;: &#x27;127.0.0.1&#x27;, &#x27;debuglevel&#x27;: 30, &#x27;with_scheduler&#x27;: False, &#x27;shutdown_timeout&#x27;: 5, &#x27;taskbar&#x27;: False, &#x27;with_coverage&#x27;: False, &#x27;pid_filename&#x27;: &#x27;httpserver.pid&#x27;, &#x27;maxthreads&#x27;: None, &#x27;softcron&#x27;: False, &#x27;server_name&#x27;: &#x27;mtk-Inspiron-1525&#x27;, &#x27;bpython&#x27;: False, &#x27;nogui&#x27;: False, &#x27;port&#x27;: 8000, &#x27;print_errors&#x27;: False, &#x27;extcron&#x27;: False, &#x27;runcron&#x27;: False, &#x27;run_system_tests&#x27;: False, &#x27;test&#x27;: None, &#x27;folder&#x27;: &#x27;/home/mtk/Dropbox/diff/newsite/web2py&#x27;, &#x27;config&#x27;: &#x27;&#x27;, &#x27;minthreads&#x27;: None, &#x27;shell&#x27;: None, &#x27;run&#x27;: &#x27;&#x27;, &#x27;log_filename&#x27;: &#x27;httpserver.log&#x27;, &#x27;profiler_dir&#x27;: None, &#x27;args&#x27;: [&#x27;&#x27;], &#x27;socket_timeout&#x27;: 5, &#x27;ssl_ca_certificate&#x27;: None, &#x27;scheduler&#x27;: None, &#x27;interfaces&#x27;: None, &#x27;ssl_private_key&#x27;: &#x27;&#x27;, &#x27;gae&#x27;: None, &#x27;password&#x27;: &#x27;******&#x27;, &#x27;request_queue_size&#x27;: 5, &#x27;ssl_certificate&#x27;: &#x27;&#x27;, &#x27;cronjob&#x27;: False, &#x27;numthreads&#x27;: None, &#x27;quiet&#x27;: False, &#x27;import_models&#x27;: False, &#x27;timeout&#x27;: 10, &#x27;plain&#x27;: False, &#x27;nobanner&#x27;: False}&gt;</div></td></tr><tr><td style="font-weight:bold;vertical-align:top;">db_sessions</td><td style="vertical-align:top;">:</td><td><div>set([])</div></td></tr><tr><td style="font-weight:bold;vertical-align:top;">debugging</td><td style="vertical-align:top;">:</td><td><div>True</div></td></tr><tr><td style="font-weight:bold;vertical-align:top;">gluon_parent</td><td style="vertical-align:top;">:</td><td><div>/home/mtk/Dropbox/diff/newsite/web2py</div></td></tr><tr><td style="font-weight:bold;vertical-align:top;">is_jython</td><td style="vertical-align:top;">:</td><td><div>False</div></td></tr><tr><td style="font-weight:bold;vertical-align:top;">is_pypy</td><td style="vertical-align:top;">:</td><td><div>False</div></td></tr><tr><td style="font-weight:bold;vertical-align:top;">is_source</td><td style="vertical-align:top;">:</td><td><div>True</div></td></tr><tr><td style="font-weight:bold;vertical-align:top;">local_hosts</td><td style="vertical-align:top;">:</td><td><div><table><tr><td><div>::1</div></td></tr><tr><td><div>127.0.1.1</div></td></tr><tr><td><div>mtk-Inspiron-1525</div></td></tr><tr><td><div>::ffff:127.0.0.1</div></td></tr><tr><td><div>127.0.0.1</div></td></tr></table></div></td></tr><tr><td style="font-weight:bold;vertical-align:top;">web2py_version</td><td style="vertical-align:top;">:</td><td><div>2.14.6-stable+timestamp.2016.05.10.00.21.47</div></td></tr></table></div></td></tr><tr><td style="font-weight:bold;vertical-align:top;">is_https</td><td style="vertical-align:top;">:</td><td><div>False</div></td></tr><tr><td style="font-weight:bold;vertical-align:top;">is_local</td><td style="vertical-align:top;">:</td><td><div>True</div></td></tr><tr><td style="font-weight:bold;vertical-align:top;">is_restful</td><td style="vertical-align:top;">:</td><td><div>False</div></td></tr><tr><td style="font-weight:bold;vertical-align:top;">is_scheduler</td><td style="vertical-align:top;">:</td><td><div>False</div></td></tr><tr><td style="font-weight:bold;vertical-align:top;">is_shell</td><td style="vertical-align:top;">:</td><td><div>False</div></td></tr><tr><td style="font-weight:bold;vertical-align:top;">now</td><td style="vertical-align:top;">:</td><td><div>datetime.datetime(2016, 11, 7, 0, 2, 27, 297704)</div></td></tr><tr><td style="font-weight:bold;vertical-align:top;">raw_args</td><td style="vertical-align:top;">:</td><td><div></div></td></tr><tr><td style="font-weight:bold;vertical-align:top;">raw_extension</td><td style="vertical-align:top;">:</td><td><div>None</div></td></tr><tr><td style="font-weight:bold;vertical-align:top;">url</td><td style="vertical-align:top;">:</td><td><div>/difflet/default/difflet</div></td></tr><tr><td style="font-weight:bold;vertical-align:top;">utcnow</td><td style="vertical-align:top;">:</td><td><div>datetime.datetime(2016, 11, 6, 18, 32, 27, 297742)</div></td></tr><tr><td style="font-weight:bold;vertical-align:top;">wsgi</td><td style="vertical-align:top;">:</td><td><div>&lt;gluon.main.LazyWSGI object at 0xae92964c&gt;</div></td></tr></table></div>'
tRp58
sS'frames'
p59
(lp60
(dp61
S'file'
p62
S'/home/mtk/Dropbox/diff/newsite/web2py/gluon/restricted.py'
p63
sS'dump'
p64
(dp65
S'environment'
p66
S"{'A': <class 'gluon.html.A'>, 'ANY_OF': <class 'gluon.validators.ANY_OF'>, 'ASSIGNJS': <function ASSIGNJS>, 'AppConfig': <function AppConfig>, 'Auth': <class 'gluon.tools.Auth'>, 'B': <class 'gluon.html.B'>, 'BEAUTIFY': <class 'gluon.html.BEAUTIFY'>, 'BODY': <class 'gluon.html.BODY'>, 'BR': <class 'gluon.html.BR'>, 'BUTTON': <class 'gluon.html.BUTTON'>, ...}"
p67
sS'ccode'
p68
S'<code object <module> at 0xae917140, file "/home...ions/difflet/views/default/difflet.html", line 1>'
p69
ssS'lnum'
p70
I227
sS'lines'
p71
(dp72
I224
S'            ccode = code'
p73
sI225
S'        else:'
p74
sI226
S'            ccode = compile2(code, layer)'
p75
sI227
S'        exec ccode in environment'
p76
sI228
S'    except HTTP:'
p77
sI229
S'        raise'
p78
sI230
S'    except RestrictedError:'
p79
sI231
S'        # do not encapsulate (obfuscate) the original RestrictedError'
p80
sI222
S'    try:'
p81
sI223
S'        if isinstance(code, types.CodeType):'
p82
ssS'call'
p83
S'(code=\'response.write(\\\'<!DOCTYPE html>\\\\n<!--[if (gt IE ..."></script>\\\\n  </body>\\\\n</html>\\\\n\\\', escape=False)\', environment={\'A\': <class \'gluon.html.A\'>, \'ANY_OF\': <class \'gluon.validators.ANY_OF\'>, \'ASSIGNJS\': <function ASSIGNJS>, \'AppConfig\': <function AppConfig>, \'Auth\': <class \'gluon.tools.Auth\'>, \'B\': <class \'gluon.html.B\'>, \'BEAUTIFY\': <class \'gluon.html.BEAUTIFY\'>, \'BODY\': <class \'gluon.html.BODY\'>, \'BR\': <class \'gluon.html.BR\'>, \'BUTTON\': <class \'gluon.html.BUTTON\'>, ...}, layer=\'/home/mtk/Dropbox/diff/newsite/web2py/applications/difflet/views/default/difflet.html\')'
p84
sS'func'
p85
S'restricted'
p86
sa(dp87
g62
S'/home/mtk/Dropbox/diff/newsite/web2py/applications/difflet/views/default/difflet.html'
p88
sg64
(dp89
S'div'
p90
S'undefined'
p91
ssg70
I137
sg71
(dp92
I128
S'    response.write(\'\\n        </div>\\n        <div class="col-md-2"></div>\\n\\n    </div>\\n    \', escape=False)'
p93
sI129
S'    i+=1'
p94
sI130
S"    response.write('\\n    ', escape=False)"
p95
sI131
S'    pass'
p96
sI132
S'response.write(\'\\n\\n\\n    <div class="row">\\n        <div class="col-md-4"></div>\\n        <div class="col-md-4 dp"  data-id="\', escape=False)'
p97
sI133
S'response.write(i)'
p98
sI134
S'response.write(\'">\\n          <span class="btn btn-primary btn-large">Video</span>\\n        </div>\\n    </div>\\n\\n    <div class="row row\', escape=False)'
p99
sI135
S'response.write(i)'
p100
sI136
S'response.write(\'">\\n        \', escape=False)'
p101
sI137
S'if diffvideo :'
p102
sI138
S'    response.write(\'\\n        <div class="col-md-2"></div>\\n        <div class="col-md-4 leftPane">\\n            <iframe width="350" height="197" src="https://www.youtube.com/embed/2B9cPKHCKlw?rel=0" frameborder="0" allowfullscreen></iframe>\\n        </div>\\n        <div class="col-md-4 rightPane">\\n            <iframe width="350" height="197" src="https://www.youtube.com/embed/2B9cPKHCKlw?rel=0" frameborder="0" allowfullscreen></iframe>\\n        </div>\\n        \', escape=False)'
p103
sI139
S'else:'
p104
sI140
S'    response.write(\'\\n        <div class="col-md-8 col-md-offset-3">\\n            <iframe width="500" height="281" src="https://www.youtube.com/embed/2B9cPKHCKlw?rel=0" frameborder="0" allowfullscreen></iframe>\\n        </div>\\n\\n        \', escape=False)'
p105
sI141
S'    pass'
p106
sI142
S'response.write(\'\\n        <div class="col-md-2"></div>\\n    </div>\\n\\n\\n    <div class="row recent-popular-row">\\n\\n\\n    <div class="col-md-10 col-md-offset-1 popular_searches">\\n        <a href = "#" class = "list-group-item active">\\n            <b>Popular Searches</b>\\n        </a>\\n        \', escape=False)'
p107
sI143
S'for i in range(0):'
p108
sI144
S'    response.write(\'\\n        <div class="boxes">\\n                <span id="diffbox" >\\n                <a href="\', escape=False)'
p109
sI145
S"    response.write(URL('default', 'difflet', vars={'e1' : 'India', 'e2' : 'Australia'}))"
p110
sI146
S'    response.write(\'">\\n                <span class="box">\\n                    <span>India</span>\\n                    <span>-vs-</span>\\n                    <span>Australia</span>\\n                    <span class="hits">4</span>\\n                </span>\\n                </a>\\n                </span>\\n            </div>\\n        \', escape=False)'
p111
sI147
S'    pass'
p112
ssg83
S'()'
p113
sg85
S'<module>'
p114
sasS'pyver'
p115
S'Python 2.7.12: /home/mtk/.anaconda2/bin/python (prefix: /home/mtk/.anaconda2)'
p116
sS'session'
p117
g57
(S's\x1a\x00\x00\x00<div><table></table></div>'
tRp118
sS'etype'
p119
S"<type 'exceptions.NameError'>"
p120
sS'date'
p121
S'Mon Nov  7 00:02:27 2016'
p122
sS'response'
p123
g57
(S's\xcc\x1e\x00\x00<div><table><tr><td style="font-weight:bold;vertical-align:top;">body</td><td style="vertical-align:top;">:</td><td><div>&lt;cStringIO.StringO object at 0xae9291a0&gt;</div></td></tr><tr><td style="font-weight:bold;vertical-align:top;">cookies</td><td style="vertical-align:top;">:</td><td><div><table><tr><td style="font-weight:bold;vertical-align:top;">session_id_difflet</td><td style="vertical-align:top;">:</td><td><div>127.0.0.1-d6f9c119-5bc4-44b5-97d7-bbded004ac89<table><tr><td style="font-weight:bold;vertical-align:top;">comment</td><td style="vertical-align:top;">:</td><td><div></div></td></tr><tr><td style="font-weight:bold;vertical-align:top;">domain</td><td style="vertical-align:top;">:</td><td><div></div></td></tr><tr><td style="font-weight:bold;vertical-align:top;">expires</td><td style="vertical-align:top;">:</td><td><div></div></td></tr><tr><td style="font-weight:bold;vertical-align:top;">httponly</td><td style="vertical-align:top;">:</td><td><div></div></td></tr><tr><td style="font-weight:bold;vertical-align:top;">max-age</td><td style="vertical-align:top;">:</td><td><div></div></td></tr><tr><td style="font-weight:bold;vertical-align:top;">path</td><td style="vertical-align:top;">:</td><td><div>/</div></td></tr><tr><td style="font-weight:bold;vertical-align:top;">secure</td><td style="vertical-align:top;">:</td><td><div></div></td></tr><tr><td style="font-weight:bold;vertical-align:top;">version</td><td style="vertical-align:top;">:</td><td><div></div></td></tr></table></div></td></tr></table></div></td></tr><tr><td style="font-weight:bold;vertical-align:top;">delimiters</td><td style="vertical-align:top;">:</td><td><div><table><tr><td><div>{{</div></td></tr><tr><td><div>}}</div></td></tr></table></div></td></tr><tr><td style="font-weight:bold;vertical-align:top;">files</td><td style="vertical-align:top;">:</td><td><div><table><tr><td><div>/difflet/static/js/jquery.js</div></td></tr><tr><td><div>/difflet/static/css/calendar.css</div></td></tr><tr><td><div>/difflet/static/js/calendar.js</div></td></tr><tr><td><div>/difflet/static/js/web2py.js</div></td></tr></table></div></td></tr><tr><td style="font-weight:bold;vertical-align:top;">flash</td><td style="vertical-align:top;">:</td><td><div></div></td></tr><tr><td style="font-weight:bold;vertical-align:top;">form_label_separator</td><td style="vertical-align:top;">:</td><td><div></div></td></tr><tr><td style="font-weight:bold;vertical-align:top;">formstyle</td><td style="vertical-align:top;">:</td><td><div>bootstrap3_inline</div></td></tr><tr><td style="font-weight:bold;vertical-align:top;">generic_patterns</td><td style="vertical-align:top;">:</td><td><div><table><tr><td><div>*</div></td></tr></table></div></td></tr><tr><td style="font-weight:bold;vertical-align:top;">google_analytics_id</td><td style="vertical-align:top;">:</td><td><div>None</div></td></tr><tr><td style="font-weight:bold;vertical-align:top;">headers</td><td style="vertical-align:top;">:</td><td><div><table><tr><td style="font-weight:bold;vertical-align:top;">X-Powered-By</td><td style="vertical-align:top;">:</td><td><div>web2py</div></td></tr></table></div></td></tr><tr><td style="font-weight:bold;vertical-align:top;">logo</td><td style="vertical-align:top;">:</td><td><div><a class="navbar-brand" href="http://www.127.0.0.0:8000/" id="web2py-logo"><b>diff<span>L</span>et</b>&trade;&nbsp;</a></div></td></tr><tr><td style="font-weight:bold;vertical-align:top;">menu</td><td style="vertical-align:top;">:</td><td><div><table><tr><td><div><table><tr><td><div>Home</div></td></tr><tr><td><div>False</div></td></tr><tr><td><div>/difflet/default/index</div></td></tr><tr><td><div><table></table></div></td></tr></table></div></td></tr><tr><td><div><table><tr><td><div>Search</div></td></tr><tr><td><div>False</div></td></tr><tr><td><div>/difflet/default/search</div></td></tr><tr><td><div><table></table></div></td></tr></table></div></td></tr><tr><td><div><table><tr><td><div>About</div></td></tr><tr><td><div>False</div></td></tr><tr><td><div>/difflet/default/about</div></td></tr><tr><td><div><table></table></div></td></tr></table></div></td></tr></table></div></td></tr><tr><td style="font-weight:bold;vertical-align:top;">meta</td><td style="vertical-align:top;">:</td><td><div><table><tr><td style="font-weight:bold;vertical-align:top;">author</td><td style="vertical-align:top;">:</td><td><div>Md Tareque Khan , Harshendra Avabratha</div></td></tr><tr><td style="font-weight:bold;vertical-align:top;">description</td><td style="vertical-align:top;">:</td><td><div>difference between any entities</div></td></tr><tr><td style="font-weight:bold;vertical-align:top;">generator</td><td style="vertical-align:top;">:</td><td><div>difflet point by point comparision</div></td></tr><tr><td style="font-weight:bold;vertical-align:top;">keywords</td><td style="vertical-align:top;">:</td><td><div>difference between, diff, difflet, point by point comparision</div></td></tr></table></div></td></tr><tr><td style="font-weight:bold;vertical-align:top;">models_to_run</td><td style="vertical-align:top;">:</td><td><div><table><tr><td><div>^\\w+\\.py$</div></td></tr><tr><td><div>^default/\\w+\\.py$</div></td></tr><tr><td><div>^default/difflet/\\w+\\.py$</div></td></tr></table></div></td></tr><tr><td style="font-weight:bold;vertical-align:top;">postprocessing</td><td style="vertical-align:top;">:</td><td><div><table></table></div></td></tr><tr><td style="font-weight:bold;vertical-align:top;">session_client</td><td style="vertical-align:top;">:</td><td><div>127.0.0.1</div></td></tr><tr><td style="font-weight:bold;vertical-align:top;">session_cookie_compression_level</td><td style="vertical-align:top;">:</td><td><div>None</div></td></tr><tr><td style="font-weight:bold;vertical-align:top;">session_cookie_expires</td><td style="vertical-align:top;">:</td><td><div>None</div></td></tr><tr><td style="font-weight:bold;vertical-align:top;">session_data_name</td><td style="vertical-align:top;">:</td><td><div>session_data_difflet</div></td></tr><tr><td style="font-weight:bold;vertical-align:top;">session_file</td><td style="vertical-align:top;">:</td><td><div>None</div></td></tr><tr><td style="font-weight:bold;vertical-align:top;">session_filename</td><td style="vertical-align:top;">:</td><td><div>/home/mtk/Dropbox/diff/newsite/web2py/applications/difflet/sessions/127.0.0.1-d6f9c119-5bc4-44b5-97d7-bbded004ac89</div></td></tr><tr><td style="font-weight:bold;vertical-align:top;">session_hash</td><td style="vertical-align:top;">:</td><td><div>c0762cbf4baf7f9af97c051e7fcb8083</div></td></tr><tr><td style="font-weight:bold;vertical-align:top;">session_id</td><td style="vertical-align:top;">:</td><td><div>127.0.0.1-d6f9c119-5bc4-44b5-97d7-bbded004ac89</div></td></tr><tr><td style="font-weight:bold;vertical-align:top;">session_id_name</td><td style="vertical-align:top;">:</td><td><div>session_id_difflet</div></td></tr><tr><td style="font-weight:bold;vertical-align:top;">session_masterapp</td><td style="vertical-align:top;">:</td><td><div>difflet</div></td></tr><tr><td style="font-weight:bold;vertical-align:top;">session_new</td><td style="vertical-align:top;">:</td><td><div>True</div></td></tr><tr><td style="font-weight:bold;vertical-align:top;">session_storage_type</td><td style="vertical-align:top;">:</td><td><div>file</div></td></tr><tr><td style="font-weight:bold;vertical-align:top;">status</td><td style="vertical-align:top;">:</td><td><div>200</div></td></tr><tr><td style="font-weight:bold;vertical-align:top;">subtitle</td><td style="vertical-align:top;">:</td><td><div></div></td></tr><tr><td style="font-weight:bold;vertical-align:top;">title</td><td style="vertical-align:top;">:</td><td><div>Difflet</div></td></tr><tr><td style="font-weight:bold;vertical-align:top;">view</td><td style="vertical-align:top;">:</td><td><div>default/difflet.html</div></td></tr></table></div>'
tRp124
sS'locals'
p125
(dp126
S'Service'
p127
S"<class 'gluon.tools.Service'>"
p128
sS'OBJECT'
p129
S"<class 'gluon.html.OBJECT'>"
p130
sS'SQLDB'
p131
S"<class 'pydal.base.DAL'>"
p132
sg117
S'<Storage {}>'
p133
sS'LINK'
p134
S"<class 'gluon.html.LINK'>"
p135
sS'BR'
p136
S"<class 'gluon.html.BR'>"
p137
sS'local_import'
p138
S'<function <lambda>>'
p139
sS'OPTGROUP'
p140
S"<class 'gluon.html.OPTGROUP'>"
p141
sS'__package__'
p142
S'None'
p143
sS'PRE'
p144
S"<class 'gluon.html.PRE'>"
p145
sS'IS_INT_IN_RANGE'
p146
S"<class 'gluon.validators.IS_INT_IN_RANGE'>"
p147
sS'left_sidebar_enabled'
p148
S'False'
p149
sS'IS_LOWER'
p150
S"<class 'gluon.validators.IS_LOWER'>"
p151
sS'IS_STRONG'
p152
S"<class 'gluon.validators.IS_STRONG'>"
p153
sS'cache'
p154
S'<gluon.cache.Cache object>'
p155
sS'IS_IN_DB'
p156
S"<class 'gluon.validators.IS_IN_DB'>"
p157
sS'TAG'
p158
S'<gluon.html.__TAG__ object>'
p159
sS'SQLField'
p160
S"<class 'pydal.objects.Field'>"
p161
sS'mail'
p162
S'<gluon.tools.Mail object>'
p163
sS'BODY'
p164
S"<class 'gluon.html.BODY'>"
p165
sS'IS_DATE_IN_RANGE'
p166
S"<class 'gluon.validators.IS_DATE_IN_RANGE'>"
p167
sS'IFRAME'
p168
S"<class 'gluon.html.IFRAME'>"
p169
sS'URL'
p170
S'<function URL>'
p171
sS'__file__'
p172
S"'/home/mtk/Dropbox/diff/newsite/web2py/applications/difflet/views/default/difflet.html'"
p173
sS'db'
p174
S'<DAL uri="mysql:******@localhost/difflet_db">'
p175
sS'auth'
p176
S'<gluon.tools.Auth object>'
p177
sS'P'
S"<class 'gluon.html.P'>"
p178
sS'TFOOT'
p179
S"<class 'gluon.html.TFOOT'>"
p180
sS'XHTML'
p181
S"<class 'gluon.html.XHTML'>"
p182
sS'dp'
p183
S"'officialLanguages'"
p184
sS'ON'
p185
S'True'
p186
sS'OL'
p187
S"<class 'gluon.html.OL'>"
p188
sS'TEXTAREA'
p189
S"<class 'gluon.html.TEXTAREA'>"
p190
sS'MENU'
p191
S"<class 'gluon.html.MENU'>"
p192
sS'common'
p193
S"['areaKm', 'areaSqMi', 'capital', 'commonName', 'conventionalLongName', 'currency', 'demonym', 'establishedDate', 'governmentType', 'imageFlag', 'leaderName', 'leaderTitle', 'nationalAnthem', 'nativeName', 'officialLanguages', 'populationEstimate', 'timeZone']"
p194
sS'IS_IMAGE'
p195
S"<class 'gluon.validators.IS_IMAGE'>"
p196
sg2
S"{'areaKm': ('3287590', '1904569'), 'areaSqMi': ('1269346', '735358'), 'capital': ('New_Delhi', 'Jakarta'), 'commonName': ('India', 'Indonesia'), 'conventionalLongName': ('Republic of India', 'Republic of Indonesia'), 'currency': ('Indian rupee', 'Indonesian_rupiah'), 'demonym': ('Indian_people', 'Demographics_of_Indonesia'), 'establishedDate': ('1947-08-15,1950-01-26', '1945-08-17'), 'governmentType': ('Federation,Parliamentary_system,Republic', 'Unitary_state,Presidential_system,Republic'), 'imageFlag': ('Flag of India.svg', 'Flag of Indonesia.svg'), ...}"
p197
sS'EM'
p198
S"<class 'gluon.html.EM'>"
p199
sS'CODE'
p200
S"<class 'gluon.html.CODE'>"
p201
sS'HTTP'
p202
S"<class 'gluon.http.HTTP'>"
p203
sS'HR'
p204
S"<class 'gluon.html.HR'>"
p205
sS'IS_DATETIME'
p206
S"<class 'gluon.validators.IS_DATETIME'>"
p207
sS'STYLE'
p208
S"<class 'gluon.html.STYLE'>"
p209
sS'LABEL'
p210
S"<class 'gluon.html.LABEL'>"
p211
sS'CLEANUP'
p212
S"<class 'gluon.validators.CLEANUP'>"
p213
sS'plugins'
p214
S'<gluon.tools.PluginManager object>'
p215
sS'BUTTON'
p216
S"<class 'gluon.html.BUTTON'>"
p217
sS'e2_dp_id'
p218
S"['areaKm', 'areaSqMi', 'capital', 'commonName', 'conventionalLongName', 'currency', 'demonym', 'establishedDate', 'governmentType', 'imageFlag', 'leaderName', 'leaderTitle', 'nationalAnthem', 'nationalMotto', 'nativeName', 'officialLanguages', 'populationDensityKm', 'populationDensitySqMi', 'populationEstimate', 'timeZone']"
p219
sS'SELECT'
p220
S"<class 'gluon.html.SELECT'>"
p221
sS'CENTER'
p222
S"<class 'gluon.html.CENTER'>"
p223
sS'Auth'
p224
S"<class 'gluon.tools.Auth'>"
p225
sS'DEVELOPMENT_MENU'
p226
g149
sS'__builtins__'
p227
S"{'ArithmeticError': <type 'exceptions.ArithmeticError'>, 'AssertionError': <type 'exceptions.AssertionError'>, 'AttributeError': <type 'exceptions.AttributeError'>, 'BaseException': <type 'exceptions.BaseException'>, 'BufferError': <type 'exceptions.BufferError'>, 'BytesWarning': <type 'exceptions.BytesWarning'>, 'DeprecationWarning': <type 'exceptions.DeprecationWarning'>, 'EOFError': <type 'exceptions.EOFError'>, 'Ellipsis': Ellipsis, 'EnvironmentError': <type 'exceptions.EnvironmentError'>, ...}"
p228
sS'HTML'
p229
S"<class 'gluon.html.HTML'>"
p230
sS'SQLFORM'
p231
S"<class 'gluon.sqlhtml.SQLFORM'>"
p232
sS'LOAD'
p233
S'<function LOAD>'
p234
sS'redirect'
p235
S'<function redirect>'
p236
sS'FIELDSET'
p237
S"<class 'gluon.html.FIELDSET'>"
p238
sS'IS_EQUAL_TO'
p239
S"<class 'gluon.validators.IS_EQUAL_TO'>"
p240
sS'embed64'
p241
S'<function embed64>'
p242
sS'IS_LIST_OF'
p243
S"<class 'gluon.validators.IS_LIST_OF'>"
p244
sS'INPUT'
p245
S"<class 'gluon.html.INPUT'>"
p246
sS'EMBED'
p247
S"<class 'gluon.html.EMBED'>"
p248
sS'e1'
p249
S"'india'"
p250
sS'_'
S'<function _>'
p251
sS'e2'
p252
S"'indonesia'"
p253
sS'myconf'
p254
S"{'forms': {'formstyle': 'bootstrap3_inline', 'se...': {'names': 'localhost:*, 127.0.0.1:*, *:*, *'}}"
p255
sS'H2'
p256
S"<class 'gluon.html.H2'>"
p257
sS'H3'
p258
S"<class 'gluon.html.H3'>"
p259
sS'AppConfig'
p260
S'<function AppConfig>'
p261
sS'H1'
p262
S"<class 'gluon.html.H1'>"
p263
sS'H6'
p264
S"<class 'gluon.html.H6'>"
p265
sS'H4'
p266
S"<class 'gluon.html.H4'>"
p267
sS'H5'
p268
S"<class 'gluon.html.H5'>"
p269
sS'UL'
p270
S"<class 'gluon.html.UL'>"
p271
sS'IS_UPPER'
p272
S"<class 'gluon.validators.IS_UPPER'>"
p273
sS'xmlescape'
p274
S'<function xmlescape>'
p275
sS'IS_TIME'
p276
S"<class 'gluon.validators.IS_TIME'>"
p277
sS'OPTION'
p278
S"<class 'gluon.html.OPTION'>"
p279
sS'TITLE'
p280
S"<class 'gluon.html.TITLE'>"
p281
sS'CRYPT'
p282
S"<class 'gluon.validators.CRYPT'>"
p283
sS'e1_dp_id'
p284
S"['areaKm', 'areaSqMi', 'capital', 'commonName', 'conventionalLongName', 'currency', 'demonym', 'establishedDate', 'governmentType', 'imageFlag', 'largestCity', 'leaderName', 'leaderTitle', 'nationalAnthem', 'nativeName', 'officialLanguages', 'percentWater', 'populationEstimate', 'timeZone']"
p285
sS'IS_EMPTY_OR'
p286
S"<class 'gluon.validators.IS_EMPTY_OR'>"
p287
sS'MARKMIN'
p288
S"<class 'gluon.html.MARKMIN'>"
p289
sS'one'
p290
S"{'areaKm': '3287590', 'areaSqMi': '1269346', 'capital': 'New_Delhi', 'commonName': 'India', 'conventionalLongName': 'Republic of India', 'currency': 'Indian rupee', 'demonym': 'Indian_people', 'establishedDate': '1947-08-15,1950-01-26', 'governmentType': 'Federation,Parliamentary_system,Republic', 'imageFlag': 'Flag of India.svg', ...}"
p291
sS'__name__'
p292
S"'__restricted__'"
p293
sS'STRONG'
p294
S"<class 'gluon.html.STRONG'>"
p295
sS'COL'
p296
S"<class 'gluon.html.COL'>"
p297
sS'mc1'
p298
S"'col-md-9'"
p299
sS'mc0'
p300
S"'col-md-12'"
p301
sS'service'
p302
S'<gluon.tools.Service object>'
p303
sS'SCRIPT'
p304
S"<class 'gluon.html.SCRIPT'>"
p305
sS'two'
p306
S"{'areaKm': '1904569', 'areaSqMi': '735358', 'capital': 'Jakarta', 'commonName': 'Indonesia', 'conventionalLongName': 'Republic of Indonesia', 'currency': 'Indonesian_rupiah', 'demonym': 'Demographics_of_Indonesia', 'establishedDate': '1945-08-17', 'governmentType': 'Unitary_state,Presidential_system,Republic', 'imageFlag': 'Flag of Indonesia.svg', ...}"
p307
sS'old_tuple'
p308
S"('Hindi,English', '')"
p309
sS'TABLE'
p310
S"<class 'gluon.html.TABLE'>"
p311
sS'IS_IPV4'
p312
S"<class 'gluon.validators.IS_IPV4'>"
p313
sS'IS_LENGTH'
p314
S"<class 'gluon.validators.IS_LENGTH'>"
p315
sS'IS_IPV6'
p316
S"<class 'gluon.validators.IS_IPV6'>"
p317
sS'XML'
p318
S"<class 'gluon.html.XML'>"
p319
sS'B'
S"<class 'gluon.html.B'>"
p320
sS'IMG'
p321
S"<class 'gluon.html.IMG'>"
p322
sS'SQLTABLE'
p323
S"<class 'gluon.sqlhtml.SQLTABLE'>"
p324
sS'IS_MATCH'
p325
S"<class 'gluon.validators.IS_MATCH'>"
p326
sS'IS_ALPHANUMERIC'
p327
S"<class 'gluon.validators.IS_ALPHANUMERIC'>"
p328
sS'getdata'
p329
S'<function getdata>'
p330
sS'SPAN'
p331
S"<class 'gluon.html.SPAN'>"
p332
sS'IS_JSON'
p333
S"<class 'gluon.validators.IS_JSON'>"
p334
sS'IS_IPADDRESS'
p335
S"<class 'gluon.validators.IS_IPADDRESS'>"
p336
sS'IS_SLUG'
p337
S"<class 'gluon.validators.IS_SLUG'>"
p338
sS'value'
p339
S"('Hindi,English', 'Indonesian_language')"
p340
sS'BEAUTIFY'
p341
S"<class 'gluon.html.BEAUTIFY'>"
p342
sS'META'
p343
S"<class 'gluon.html.META'>"
p344
sS'v'
S"'Indonesian_language'"
p345
sS'k'
S"'officialLanguages'"
p346
sS'IS_DATE'
p347
S"<class 'gluon.validators.IS_DATE'>"
p348
sS'IS_EMAIL'
p349
S"<class 'gluon.validators.IS_EMAIL'>"
p350
sS'middle_column'
p351
S"'col-md-12'"
p352
sS'IS_NOT_EMPTY'
p353
S"<class 'gluon.validators.IS_NOT_EMPTY'>"
p354
sS'IS_FLOAT_IN_RANGE'
p355
S"<class 'gluon.validators.IS_FLOAT_IN_RANGE'>"
p356
sS'TBODY'
p357
S"<class 'gluon.html.TBODY'>"
p358
sS'CAT'
p359
S"<class 'gluon.html.CAT'>"
p360
sS'Field'
p361
S"<class 'pydal.objects.Field'>"
p362
sS'mc2'
p363
S"'col-md-6'"
p364
sS'IS_LIST_OF_EMAILS'
p365
S"<class 'gluon.validators.IS_LIST_OF_EMAILS'>"
p366
sS'DIV'
p367
S"<class 'gluon.html.DIV'>"
p368
sS'LEGEND'
p369
S"<class 'gluon.html.LEGEND'>"
p370
sS'COLGROUP'
p371
S"<class 'gluon.html.COLGROUP'>"
p372
sS'DAL'
p373
S"<class 'pydal.base.DAL'>"
p374
sS'ASSIGNJS'
p375
S'<function ASSIGNJS>'
p376
sS'TR'
p377
S"<class 'gluon.html.TR'>"
p378
sS'indexpath'
p379
S"'/home/mtk/Dropbox/diff/newsite/web2py/applications/difflet/private/index'"
p380
sS'LI'
p381
S"<class 'gluon.html.LI'>"
p382
sS'right_sidebar_enabled'
p383
g149
sS'TH'
p384
S"<class 'gluon.html.TH'>"
p385
sS'TD'
p386
S"<class 'gluon.html.TD'>"
p387
sS'PluginManager'
p388
S"<class 'gluon.tools.PluginManager'>"
p389
sS'IS_URL'
p390
S"<class 'gluon.validators.IS_URL'>"
p391
sS'A'
S"<class 'gluon.html.A'>"
p392
sS'HEAD'
p393
S"<class 'gluon.html.HEAD'>"
p394
sS'IS_DATETIME_IN_RANGE'
p395
S"<class 'gluon.validators.IS_DATETIME_IN_RANGE'>"
p396
sS'FORM'
p397
S"<class 'gluon.html.FORM'>"
p398
sS'I'
S"<class 'gluon.html.I'>"
p399
sS'IS_NOT_IN_DB'
p400
S"<class 'gluon.validators.IS_NOT_IN_DB'>"
p401
sg123
S"<Storage {'body': <cStringIO.StringO object at 0... at 0xae7d4aac>, 'view': 'default/difflet.html'}>"
p402
sS'THEAD'
p403
S"<class 'gluon.html.THEAD'>"
p404
sS'ANY_OF'
p405
S"<class 'gluon.validators.ANY_OF'>"
p406
sS'IS_NULL_OR'
p407
S"<class 'gluon.validators.IS_EMPTY_OR'>"
p408
sS'i'
S'17'
p409
sg56
S"<Storage {'_vars': <Storage {'e1': 'India', 'e2'...pbox/diff/newsite/web2py/applications/difflet/'}>"
p410
sS'IS_EXPR'
p411
S"<class 'gluon.validators.IS_EXPR'>"
p412
sS'T'
S'<gluon.languages.translator object>'
p413
sS'IS_IN_SET'
p414
S"<class 'gluon.validators.IS_IN_SET'>"
p415
sS'IS_UPLOAD_FILENAME'
p416
S"<class 'gluon.validators.IS_UPLOAD_FILENAME'>"
p417
sS'TT'
p418
S"<class 'gluon.html.TT'>"
p419
sS'IS_DECIMAL_IN_RANGE'
p420
S"<class 'gluon.validators.IS_DECIMAL_IN_RANGE'>"
p421
sssS'traceback'
p422
S'Traceback (most recent call last):\n  File "/home/mtk/Dropbox/diff/newsite/web2py/gluon/restricted.py", line 227, in restricted\n    exec ccode in environment\n  File "/home/mtk/Dropbox/diff/newsite/web2py/applications/difflet/views/default/difflet.html", line 137, in <module>\n    </div>\nNameError: name \'diffvideo\' is not defined\n'
p423
s.