(dp1
S'output'
p2
S"<type 'exceptions.NameError'> name 'i' is not defined"
p3
sS'layer'
p4
S'/home/mtk/Dropbox/diff/newsite/web2py/applications/difflet/views/default/difflet.html'
p5
sS'code'
p6
S'response.write(\'<!DOCTYPE html>\\n<!--[if (gt IE 9)|!(IE)]><!--> <html class="no-js" lang="\', escape=False)\nresponse.write(T.accepted_language or \'en\')\nresponse.write(\'"> <!--<![endif]-->\\n  <head>\\n    <meta charset="utf-8">\\n    <!-- www.phpied.com/conditional-comments-block-downloads/ -->\\n    <!-- Always force latest IE rendering engine\\n         (even in intranet) & Chrome Frame\\n         Remove this if you use the .htaccess -->\\n    <meta http-equiv="X-UA-Compatible" content="IE=edge\', escape=False)\nresponse.write(not request.is_local and \',chrome=1\' or \'\')\nresponse.write(\'">\\n    <!--  Mobile Viewport Fix\\n          j.mp/mobileviewport & davidbcalhoun.com/2010/viewport-metatag\\n          device-width: Occupy full width of the screen in its current orientation\\n          initial-scale = 1.0 retains dimensions instead of zooming out if page height > device height\\n          user-scalable = yes allows the user to zoom in -->\\n    <meta name="viewport" content="width=device-width, initial-scale=1.0">\\n    <title>\', escape=False)\nresponse.write(response.title or request.application)\nresponse.write(\'</title>\\n    <!-- http://dev.w3.org/html5/markup/meta.name.html -->\\n    <meta name="application-name" content="\', escape=False)\nresponse.write(request.application)\nresponse.write(\'">\\n    <!-- Speaking of Google, don\\\'t forget to set your site up:\\n         http://google.com/webmasters -->\\n    <meta name="google-site-verification" content="">\\n    <!-- include stylesheets -->\\n    <link rel="stylesheet" href="\', escape=False)\nresponse.write(URL(\'static\',\'css/bootstrap.min.css\'))\nresponse.write(\'"/>\\n    <link rel="stylesheet" href="\', escape=False)\nresponse.write(URL(\'static\',\'css/web2py-bootstrap3.css\'))\nresponse.write(\'"/>\\n    <link rel="stylesheet" href="\', escape=False)\nresponse.write(URL(\'static\',\'css/difflet.css\'))\nresponse.write(\'"/>\\n    <link rel="shortcut icon" href="\', escape=False)\nresponse.write(URL(\'static\',\'images/favicon.ico\'))\nresponse.write(\'" type="image/x-icon">\\n    <link rel="apple-touch-icon" href="\', escape=False)\nresponse.write(URL(\'static\',\'images/favicon.png\'))\nresponse.write(\'">\\n    <!-- All JavaScript at the bottom, except for Modernizr which enables\\n         HTML5 elements & feature detects -->\\n    <script src="\', escape=False)\nresponse.write(URL(\'static\',\'js/modernizr-2.8.3.min.js\'))\nresponse.write(\'"></script>\\n    <!--[if lt IE 9]>\\n        <script src="\', escape=False)\nresponse.write(URL(\'static\',\'js/respond-1.4.2.min.js\'))\nresponse.write(\'"></script>\\n        <![endif]-->\\n    <!-- Favicons -->\\n    \', escape=False)\nresponse.write(\'<script type="text/javascript"><!--\\n    // These variables are used by the web2py_ajax_init function in web2py_ajax.js (which is loaded below).\\n    var w2p_ajax_confirm_message = "\', escape=False)\nresponse.write(T(\'Are you sure you want to delete this object?\'))\nresponse.write(\'";\\n    var w2p_ajax_disable_with_message = "\', escape=False)\nresponse.write(T(\'Working...\'))\nresponse.write(\'";\\n    var w2p_ajax_date_format = "\', escape=False)\nresponse.write(T(\'%Y-%m-%d\'))\nresponse.write(\'";\\n    var w2p_ajax_datetime_format = "\', escape=False)\nresponse.write(T(\'%Y-%m-%d %H:%M:%S\'))\nresponse.write(\'";\\n    var ajax_error_500 = \\\'\', escape=False)\nresponse.write(T.M(\'An error occured, please [[reload %s]] the page\') % URL(args=request.args, vars=request.get_vars))\nresponse.write("\'\\n    //--></script>\\n", escape=False)\nresponse.files.insert(0,URL(\'static\',\'js/jquery.js\'))\nresponse.files.insert(1,URL(\'static\',\'css/calendar.css\'))\nresponse.files.insert(2,URL(\'static\',\'js/calendar.js\'))\nresponse.files.insert(3,URL(\'static\',\'js/web2py.js\'))\nresponse.include_meta()\nresponse.include_files()\nresponse.write(\'\\n\', escape=False)\nresponse.write(\' <!-- this includes jquery.js, calendar.js/.css and web2py.js -->\\n    \', escape=False)\nresponse.write(\'\\n    \', escape=False)\n# using sidebars need to know what sidebar you want to use\nmc0 = \'col-md-12\'\nmc1 = \'col-md-9\'\nmc2 = \'col-md-6\'\nleft_sidebar_enabled = globals().get(\'left_sidebar_enabled\', False)\nright_sidebar_enabled = globals().get(\'right_sidebar_enabled\', False)\nmiddle_column = {0: mc0, 1: mc1, 2: mc2}[\n(left_sidebar_enabled and 1 or 0)+(right_sidebar_enabled and 1 or 0)]\nresponse.write(\'\\n  </head>\\n  <body>\\n    <!--[if lt IE 8]><p class="browserupgrade">You are using an <strong>outdated</strong> browser. Please <a href="http://browsehappy.com/">upgrade your browser</a> to improve your experience.</p><![endif]-->\\n    <div class="w2p_flash alert alert-dismissable">\', escape=False)\nresponse.write(response.flash or \'\')\nresponse.write(\'</div>\\n    <!-- Navbar ======================================= -->\\n    <nav class="navbar navbar-default navbar-fixed-top" role="navigation">\\n      <div class="container-fluid">\\n        <div class="navbar-header">\\n          <button type="button" class="navbar-toggle" data-toggle="collapse" data-target=".navbar-collapse">\\n            <span class="sr-only">Toggle navigation</span>\\n            <span class="icon-bar"></span>\\n            <span class="icon-bar"></span>\\n            <span class="icon-bar"></span>\\n          </button>\\n          \', escape=False)\nresponse.write(response.logo or \'\')\nresponse.write(\'\\n        </div>\\n        <div class="collapse navbar-collapse navbar-ex1-collapse">\\n          <ul class="nav navbar-nav navbar-right">\\n            \', escape=False)\nresponse.write(\'auth\' in globals() and auth.navbar(\'Welcome\',mode=\'dropdown\') or \'\')\nresponse.write(\'\\n          </ul>\\n          \', escape=False)\nif response.menu:\n    response.write(\'\\n          \', escape=False)\n    response.write(MENU(response.menu, _class=\'nav navbar-nav\',li_class=\'dropdown\',ul_class=\'dropdown-menu\'))\n    response.write(\'\\n          \', escape=False)\n    pass\nresponse.write(\'\\n        </div>\\n      </div>\\n    </nav>\\n    <!-- Masthead ===================================== -->\\n    \', escape=False)\nresponse.write(\'\\n    \', escape=False)\nresponse.write(\'\\n    <!-- Main ========================================= -->\\n    <!-- Begin page content -->\\n    <div class="container-fluid main-container">\\n      \', escape=False)\nif left_sidebar_enabled:\n    response.write(\'\\n        <div class="col-md-3 left-sidebar">\\n            \', escape=False)\n    response.write(\'\\n            <h3>Left Sidebar</h3>\\n            <p></p>\\n            \', escape=False)\n    response.write(\'\\n        </div>\\n      \', escape=False)\n    pass\nresponse.write(\'\\n\\n      <div class="\', escape=False)\nresponse.write(middle_column)\nresponse.write(\'">\\n        \', escape=False)\nresponse.write(\'\\n        \', escape=False)\nresponse.write(\'\\n\\n<div class="main">\\n  <div class="row heading">\\n    <div class="col-md-2"></div>\\n    <div class="col-md-4 hleftPane">\', escape=False)\nresponse.write(e1.capitalize())\nresponse.write(\'</div>\\n    <div class="col-md-4 hrightPane">\', escape=False)\nresponse.write(e2.capitalize())\nresponse.write(\' </div>\\n  </div>\\n\\n  \', escape=False)\nif \'img\' in output:\n    response.write(\'\\n    <div class="row">\\n        <div class="col-md-4"></div>\\n        <div class="col-md-4 dp \', escape=False)\n    response.write(\'secondOnwards\' if i > 0 else \'firstdp\')\n    response.write(\'" data-id="\', escape=False)\n    response.write(i)\n    response.write(\'">\\n          <span class="btn btn-primary btn-large" style="text-transform: none">Image</span>\\n        </div>\\n    </div>\\n\\n    <div class="row row\', escape=False)\n    response.write(i)\n    response.write(\'">\\n        <div class="col-md-2"></div>\\n        <div class="col-md-4 leftPane">\\n            <img src="\', escape=False)\n    response.write(output[\'img\'][0])\n    response.write(\'" style="border: 1px solid gray;"/>\\n        </div>\\n        <div class="col-md-4 rightPane">\\n            <img src="\', escape=False)\n    response.write(output[\'img\'][1])\n    response.write(\'" style="border: 1px solid gray;"/>\\n        </div>\\n        <div class="col-md-2"></div>\\n    </div>\\n    \', escape=False)\n    del output[\'img\']\n    response.write(\'\\n    \', escape=False)\n    pass\nresponse.write(\'\\n\\n\\n  \', escape=False)\ni=0\nresponse.write(\'\\n  \', escape=False)\nimport re\nregexSub = re.compile("([A-Z])")\nregex2 = re.compile(\'(\\S)_(\\S)\')\nresponse.write(\'\\n  \', escape=False)\nfor dp, value in output.iteritems():\n    response.write(\'\\n\\n    <div class="row">\\n        <div class="col-md-4"></div>\\n        <div class="col-md-4 dp \', escape=False)\n    response.write(\'secondOnwards\' if i > 0 else \'firstdp\')\n    response.write(\'"  data-id="\', escape=False)\n    response.write(i)\n    response.write(\'">\\n\\n          <span class="btn btn-primary btn-large" style="text-transform: none;">\', escape=False)\n    response.write((regexSub.sub(" \\\\1",dp).title()))\n    response.write(\'</span>\\n        </div>\\n    </div>\\n\\n    <div class="row row\', escape=False)\n    response.write(i)\n    response.write(\'">\\n        <div class="col-md-2"></div>\\n        <div class="col-md-4 leftPane">\\n            \', escape=False)\n    if dp == \'img\':\n        response.write(\'\\n                <img src="\', escape=False)\n        response.write(value[0])\n        response.write(\'" />\\n            \', escape=False)\n    else:\n        response.write(\'\\n                \', escape=False)\n        response.write(regex2.sub(\'\\\\1 \\\\2\', value[0]))\n        response.write(\'\\n            \', escape=False)\n        pass\n    response.write(\'\\n        </div>\\n        <div class="col-md-4 rightPane">\\n            \', escape=False)\n    if dp == \'img\':\n        response.write(\'\\n                <img src="\', escape=False)\n        response.write(value[1])\n        response.write(\'" />\\n            \', escape=False)\n    else:\n        response.write(\'\\n                \', escape=False)\n        response.write(regex2.sub(\'\\\\1 \\\\2\', value[1]))\n        response.write(\'\\n            \', escape=False)\n        pass\n    response.write(\'\\n        </div>\\n        <div class="col-md-2"></div>\\n\\n    </div>\\n    \', escape=False)\n    i+=1\n    response.write(\'\\n    \', escape=False)\n    pass\nresponse.write(\'\\n\\n\\n    \', escape=False)\nif diffvideo :\n    response.write(\'\\n    <div class="row">\\n        <div class="col-md-4"></div>\\n        <div class="col-md-4 dp"  data-id="\', escape=False)\n    response.write(i)\n    response.write(\'">\\n          <span class="btn btn-primary btn-large" style="text-transform: none;">Video</span>\\n        </div>\\n    </div>\\n\\n    <div class="row row\', escape=False)\n    response.write(i)\n    response.write(\'">\\n        <div class="col-md-2"></div>\\n        \', escape=False)\n    if v1url != v2url:\n        response.write(\'\\n        <div class="col-md-4 leftPane">\\n            <iframe width="350" height="197" src="\', escape=False)\n        response.write(v1url)\n        response.write(\'" frameborder="0" allowfullscreen></iframe>\\n        </div>\\n        <div class="col-md-4 rightPane">\\n            <iframe width="350" height="197" src="\', escape=False)\n        response.write(v2url)\n        response.write(\'" frameborder="0" allowfullscreen></iframe>\\n        </div>\\n        \', escape=False)\n    else:\n        response.write(\'\\n        <div class="col-md-8">\\n            <div style="margin: 0 auto; border: 0px solid black; width: 500px;">\\n                <iframe width="500" height="281" src="\', escape=False)\n        response.write(v1url)\n        response.write(\'" frameborder="0" allowfullscreen></iframe>\\n            </div>\\n        </div>\\n        \', escape=False)\n        pass\n    response.write(\'\\n\\n        <div class="col-md-2"></div>\\n    </div>\\n    \', escape=False)\n    pass\nresponse.write(\'\\n\\n\\n    <div class="row recent-popular-row">\\n\\n\\n    <div class="col-md-10 col-md-offset-1 popular_searches">\\n        <a href = "#" class = "list-group-item active">\\n            <b>Popular Searches</b>\\n        </a>\\n        \', escape=False)\nfor i in range(0, min(4, len(popular_searches))):\n    response.write(\'\\n        <div class="boxes">\\n                <span id="diffbox" >\\n                <a href="\', escape=False)\n    response.write(URL(\'default\', \'difflet\', vars={\'e1\' : popular_searches[i][0], \'e2\' : popular_searches[i][1]}))\n    response.write(\'">\\n                <span class="box">\\n                    <span>\', escape=False)\n    response.write(popular_searches[i][0].title())\n    response.write(\'</span>\\n                    <span>-vs-</span>\\n                    <span>\', escape=False)\n    response.write(popular_searches[i][1].title())\n    response.write(\'</span>\\n                    <span class="hits">\', escape=False)\n    response.write(popular_searches[i][2])\n    response.write(\'</span>\\n                </span>\\n                </a>\\n                </span>\\n            </div>\\n        \', escape=False)\n    pass\nresponse.write(\'\\n        <div class="clear"></div>\\n    </div>\\n\\n    </div>\\n\\n\\n    <div class="row">\\n        <div class="col-md-4"></div>\\n        <div class="col-md-4 dp secondOnwards addDp">\\n            <!-- <div id="one" class="glyphicon glyphicon-plus"></div> -->\\n            \', escape=False)\nif auth.user is not None:\n    response.write(\'\\n            <div id="one" class="btn btn-primary btn-large glyphicon-plus"> <b>Add</b> </div>\\n            \', escape=False)\n    pass\nresponse.write(\'\\n            <div id="two">\\n                <div id="twow"> <span id="close">x</span> </div>\\n                <div id="form">\\n                    <form action="\', escape=False)\nresponse.write(URL(\'default\', \'addDiffPoint\'))\nresponse.write(\'" >\\n                        <input type="hidden" name="e1" value="\', escape=False)\nresponse.write(e1)\nresponse.write(\'">\\n                        <input type="hidden" name="e2" value="\', escape=False)\nresponse.write(e2)\nresponse.write(\'">\\n                        <div>Add differentiating point</div>\\n                        <div><input type="text" id="new_dp" name="new_dp"/></div>\\n                        <div>Enter value for each entity </div>\\n                        <div class="row" id="forme">\\n                            <div class="col-md-6"><b>\', escape=False)\nresponse.write(e1)\nresponse.write(\'</b></div>\\n                            <div class="col-md-6"><b>\', escape=False)\nresponse.write(e2)\nresponse.write(\'</b></div>\\n                        </div>\\n                        <div class="row">\\n                            <div class="col-md-6">\\n                                <input type="text" id="new_e1_dp" name="new_e1_dp" />\\n                            </div>\\n                            <div class="col-md-6">\\n                                <input type="text" id="new_e2_dp" name="new_e2_dp" />\\n                            </div>\\n                        </div>\\n                            <input type="submit" class="btn-primary"/>\\n\\n                    </form>\\n                </div>\\n            </div>\\n        </div>\\n    </div>\\n\\n</div>\\n\\n\\n\\n<script>\\ndone=0\\n$(\\\'#one\\\').on(\\\'click\\\', function() {\\n    console.log(\\\'here one is\\\');\\n    if (done == 0) {\\n        $(\\\'#two\\\').show();\\n        $(\\\'#two\\\').animate({\\\'top\\\' : \\\'-=60px\\\'}, 120);\\n        done=1;\\n    }\\n});\\n\\n$(\\\'#close\\\').on(\\\'click\\\', function() {\\n    done=0;\\n    console.log(\\\'closing div two\\\');\\n    $("#two").css(\\\'top\\\',\\\'+=60px\\\');\\n    $(\\\'#two\\\').hide();\\n});\\n\\n</script>\\n\', escape=False)\nresponse.write(\'\\n        \', escape=False)\nresponse.write(\'\\n      </div>\\n\\n      \', escape=False)\nif right_sidebar_enabled:\n    response.write(\'\\n        <div class="col-md-3">\\n            \', escape=False)\n    response.write(\'\\n            <h3>Right Sidebar</h3>\\n            <p></p>\\n            \', escape=False)\n    response.write(\'\\n        </div>\\n      \', escape=False)\n    pass\nresponse.write(\'\\n\\n    </div>\\n\\n    \', escape=False)\nresponse.write(\' <!-- this is default footer -->\\n    <footer class="footer">\\n      <div class="container-fluid">\\n        <div class="copyright pull-left">\', escape=False)\nresponse.write(T(\'Copyright\'))\nresponse.write(\' &#169; \', escape=False)\nresponse.write(request.now.year)\nresponse.write(\'</div>\\n      </div>\\n    </footer>\\n    \', escape=False)\nresponse.write(\'\\n    <!-- The javascript =============================== -->\\n    <script src="\', escape=False)\nresponse.write(URL(\'static\',\'js/bootstrap.min.js\'))\nresponse.write(\'"></script>\\n    <script src="\', escape=False)\nresponse.write(URL(\'static\',\'js/web2py-bootstrap3.js\'))\nresponse.write(\'"></script>\\n    <script src="\', escape=False)\nresponse.write(URL(\'static\',\'js/difflet.js\'))\nresponse.write(\'"></script>\\n    \', escape=False)\nresponse.write(\'\\n    \', escape=False)\nif response.google_analytics_id:\n    response.write(\'\\n    <!-- Analytics ==================================== -->\\n    <script src="\', escape=False)\n    response.write(URL(\'static\',\'js/analytics.min.js\'))\n    response.write(\'"></script>\\n    <script type="text/javascript">\\n      analytics.initialize({\\n      \\\'Google Analytics\\\':{trackingId:\\\'\', escape=False)\n    response.write(response.google_analytics_id)\n    response.write("\'}\\n      });\\n    </script>\\n    ", escape=False)\n    pass\nresponse.write(\'\\n    <!-- Share ============================y============ -->\\n    <script src="\', escape=False)\nresponse.write(URL(\'static\',\'js/share.js\',vars=dict(static=URL(\'static\',\'images\'))))\nresponse.write(\'"></script>\\n  </body>\\n</html>\\n\', escape=False)'
p7
sS'snapshot'
p8
(dp9
S'exception'
p10
(dp11
S'__hash__'
p12
S"<method-wrapper '__hash__' of exceptions.NameError object>"
p13
sS'__setattr__'
p14
S"<method-wrapper '__setattr__' of exceptions.NameError object>"
p15
sS'__reduce_ex__'
p16
S'<built-in method __reduce_ex__ of exceptions.NameError object>'
p17
sS'__getslice__'
p18
S"<method-wrapper '__getslice__' of exceptions.NameError object>"
p19
sS'__getitem__'
p20
S"<method-wrapper '__getitem__' of exceptions.NameError object>"
p21
sS'__setstate__'
p22
S'<built-in method __setstate__ of exceptions.NameError object>'
p23
sS'__reduce__'
p24
S'<built-in method __reduce__ of exceptions.NameError object>'
p25
sS'__str__'
p26
S"<method-wrapper '__str__' of exceptions.NameError object>"
p27
sS'__format__'
p28
S'<built-in method __format__ of exceptions.NameError object>'
p29
sS'__getattribute__'
p30
S"<method-wrapper '__getattribute__' of exceptions.NameError object>"
p31
sS'__class__'
p32
S"<type 'exceptions.NameError'>"
p33
sS'__unicode__'
p34
S'<built-in method __unicode__ of exceptions.NameError object>'
p35
sS'__delattr__'
p36
S"<method-wrapper '__delattr__' of exceptions.NameError object>"
p37
sS'__subclasshook__'
p38
S'<built-in method __subclasshook__ of type object>'
p39
sS'__repr__'
p40
S"<method-wrapper '__repr__' of exceptions.NameError object>"
p41
sS'args'
p42
S'("name \'i\' is not defined",)'
p43
sS'__dict__'
p44
S'{}'
p45
sS'__sizeof__'
p46
S'<built-in method __sizeof__ of exceptions.NameError object>'
p47
sS'__doc__'
p48
S"'Name not found globally.'"
p49
sS'__init__'
p50
S"<method-wrapper '__init__' of exceptions.NameError object>"
p51
sS'__new__'
p52
S'<built-in method __new__ of type object>'
p53
ssS'evalue'
p54
S"name 'i' is not defined"
p55
sS'request'
p56
cgluon.html
XML_unpickle
p57
(S'sr\\\x00\x00<div><table><tr><td style="font-weight:bold;vertical-align:top;">ajax</td><td style="vertical-align:top;">:</td><td><div>False</div></td></tr><tr><td style="font-weight:bold;vertical-align:top;">application</td><td style="vertical-align:top;">:</td><td><div>difflet</div></td></tr><tr><td style="font-weight:bold;vertical-align:top;">args</td><td style="vertical-align:top;">:</td><td><div><table></table></div></td></tr><tr><td style="font-weight:bold;vertical-align:top;">cid</td><td style="vertical-align:top;">:</td><td><div>None</div></td></tr><tr><td style="font-weight:bold;vertical-align:top;">client</td><td style="vertical-align:top;">:</td><td><div>127.0.0.1</div></td></tr><tr><td style="font-weight:bold;vertical-align:top;">controller</td><td style="vertical-align:top;">:</td><td><div>default</div></td></tr><tr><td style="font-weight:bold;vertical-align:top;">cookies</td><td style="vertical-align:top;">:</td><td><div><table><tr><td style="font-weight:bold;vertical-align:top;">session_id_admin</td><td style="vertical-align:top;">:</td><td><div>127.0.0.1-e36b403c-e4c4-474d-894e-5abb870286c5<table><tr><td style="font-weight:bold;vertical-align:top;">comment</td><td style="vertical-align:top;">:</td><td><div></div></td></tr><tr><td style="font-weight:bold;vertical-align:top;">domain</td><td style="vertical-align:top;">:</td><td><div></div></td></tr><tr><td style="font-weight:bold;vertical-align:top;">expires</td><td style="vertical-align:top;">:</td><td><div></div></td></tr><tr><td style="font-weight:bold;vertical-align:top;">httponly</td><td style="vertical-align:top;">:</td><td><div></div></td></tr><tr><td style="font-weight:bold;vertical-align:top;">max-age</td><td style="vertical-align:top;">:</td><td><div></div></td></tr><tr><td style="font-weight:bold;vertical-align:top;">path</td><td style="vertical-align:top;">:</td><td><div></div></td></tr><tr><td style="font-weight:bold;vertical-align:top;">secure</td><td style="vertical-align:top;">:</td><td><div></div></td></tr><tr><td style="font-weight:bold;vertical-align:top;">version</td><td style="vertical-align:top;">:</td><td><div></div></td></tr></table></div></td></tr><tr><td style="font-weight:bold;vertical-align:top;">session_id_difflet</td><td style="vertical-align:top;">:</td><td><div>127.0.0.1-559c66ea-c86a-4d42-9b93-5d9d80ad0772<table><tr><td style="font-weight:bold;vertical-align:top;">comment</td><td style="vertical-align:top;">:</td><td><div></div></td></tr><tr><td style="font-weight:bold;vertical-align:top;">domain</td><td style="vertical-align:top;">:</td><td><div></div></td></tr><tr><td style="font-weight:bold;vertical-align:top;">expires</td><td style="vertical-align:top;">:</td><td><div></div></td></tr><tr><td style="font-weight:bold;vertical-align:top;">httponly</td><td style="vertical-align:top;">:</td><td><div></div></td></tr><tr><td style="font-weight:bold;vertical-align:top;">max-age</td><td style="vertical-align:top;">:</td><td><div></div></td></tr><tr><td style="font-weight:bold;vertical-align:top;">path</td><td style="vertical-align:top;">:</td><td><div></div></td></tr><tr><td style="font-weight:bold;vertical-align:top;">secure</td><td style="vertical-align:top;">:</td><td><div></div></td></tr><tr><td style="font-weight:bold;vertical-align:top;">version</td><td style="vertical-align:top;">:</td><td><div></div></td></tr></table></div></td></tr><tr><td style="font-weight:bold;vertical-align:top;">session_id_welcome</td><td style="vertical-align:top;">:</td><td><div>127.0.0.1-e9001a12-220d-4b6e-9bd3-b9d4cc6f3d07<table><tr><td style="font-weight:bold;vertical-align:top;">comment</td><td style="vertical-align:top;">:</td><td><div></div></td></tr><tr><td style="font-weight:bold;vertical-align:top;">domain</td><td style="vertical-align:top;">:</td><td><div></div></td></tr><tr><td style="font-weight:bold;vertical-align:top;">expires</td><td style="vertical-align:top;">:</td><td><div></div></td></tr><tr><td style="font-weight:bold;vertical-align:top;">httponly</td><td style="vertical-align:top;">:</td><td><div></div></td></tr><tr><td style="font-weight:bold;vertical-align:top;">max-age</td><td style="vertical-align:top;">:</td><td><div></div></td></tr><tr><td style="font-weight:bold;vertical-align:top;">path</td><td style="vertical-align:top;">:</td><td><div></div></td></tr><tr><td style="font-weight:bold;vertical-align:top;">secure</td><td style="vertical-align:top;">:</td><td><div></div></td></tr><tr><td style="font-weight:bold;vertical-align:top;">version</td><td style="vertical-align:top;">:</td><td><div></div></td></tr></table></div></td></tr></table></div></td></tr><tr><td style="font-weight:bold;vertical-align:top;">env</td><td style="vertical-align:top;">:</td><td><div><table><tr><td style="font-weight:bold;vertical-align:top;">HTTP_ACCEPT</td><td style="vertical-align:top;">:</td><td><div>text/html,application/xhtml+xml,application/xml;q=0.9,image/webp,*/*;q=0.8</div></td></tr><tr><td style="font-weight:bold;vertical-align:top;">HTTP_ACCEPT_ENCODING</td><td style="vertical-align:top;">:</td><td><div>gzip, deflate, sdch</div></td></tr><tr><td style="font-weight:bold;vertical-align:top;">HTTP_ACCEPT_LANGUAGE</td><td style="vertical-align:top;">:</td><td><div>en-US,en;q=0.8</div></td></tr><tr><td style="font-weight:bold;vertical-align:top;">HTTP_CONNECTION</td><td style="vertical-align:top;">:</td><td><div>keep-alive</div></td></tr><tr><td style="font-weight:bold;vertical-align:top;">HTTP_COOKIE</td><td style="vertical-align:top;">:</td><td><div>session_id_welcome=127.0.0.1-e9001a12-220d-4b6e-9bd3-b9d4cc6f3d07; session_id_admin=127.0.0.1-e36b403c-e4c4-474d-894e-5abb870286c5; session_id_difflet=127.0.0.1-559c66ea-c86a-4d42-9b93-5d9d80ad0772</div></td></tr><tr><td style="font-weight:bold;vertical-align:top;">HTTP_DNT</td><td style="vertical-align:top;">:</td><td><div>1</div></td></tr><tr><td style="font-weight:bold;vertical-align:top;">HTTP_HOST</td><td style="vertical-align:top;">:</td><td><div>127.0.0.1:8000</div></td></tr><tr><td style="font-weight:bold;vertical-align:top;">HTTP_REFERER</td><td style="vertical-align:top;">:</td><td><div>http://127.0.0.1:8000/difflet/default/search</div></td></tr><tr><td style="font-weight:bold;vertical-align:top;">HTTP_UPGRADE_INSECURE_REQUESTS</td><td style="vertical-align:top;">:</td><td><div>1</div></td></tr><tr><td style="font-weight:bold;vertical-align:top;">HTTP_USER_AGENT</td><td style="vertical-align:top;">:</td><td><div>Mozilla/5.0 (X11; Linux i686) AppleWebKit/537.36 (KHTML, like Gecko) Ubuntu Chromium/52.0.2743.116 Chrome/52.0.2743.116 Safari/537.36</div></td></tr><tr><td style="font-weight:bold;vertical-align:top;">PATH_INFO</td><td style="vertical-align:top;">:</td><td><div>/difflet/default/difflet</div></td></tr><tr><td style="font-weight:bold;vertical-align:top;">QUERY_STRING</td><td style="vertical-align:top;">:</td><td><div>e1=jalebi&amp;e2=samosa</div></td></tr><tr><td style="font-weight:bold;vertical-align:top;">REMOTE_ADDR</td><td style="vertical-align:top;">:</td><td><div>127.0.0.1</div></td></tr><tr><td style="font-weight:bold;vertical-align:top;">REMOTE_PORT</td><td style="vertical-align:top;">:</td><td><div>52042</div></td></tr><tr><td style="font-weight:bold;vertical-align:top;">REQUEST_METHOD</td><td style="vertical-align:top;">:</td><td><div>GET</div></td></tr><tr><td style="font-weight:bold;vertical-align:top;">SCRIPT_NAME</td><td style="vertical-align:top;">:</td><td><div></div></td></tr><tr><td style="font-weight:bold;vertical-align:top;">SERVER_NAME</td><td style="vertical-align:top;">:</td><td><div>mtk-Inspiron-1525</div></td></tr><tr><td style="font-weight:bold;vertical-align:top;">SERVER_PORT</td><td style="vertical-align:top;">:</td><td><div>8000</div></td></tr><tr><td style="font-weight:bold;vertical-align:top;">SERVER_PROTOCOL</td><td style="vertical-align:top;">:</td><td><div>HTTP/1.1</div></td></tr><tr><td style="font-weight:bold;vertical-align:top;">SERVER_SOFTWARE</td><td style="vertical-align:top;">:</td><td><div>Rocket 1.2.6</div></td></tr><tr><td style="font-weight:bold;vertical-align:top;">app_folders</td><td style="vertical-align:top;">:</td><td><div>set([&#x27;/home/mtk/Dropbox/diff/newsite/web2py/applications/difflet/&#x27;])</div></td></tr><tr><td style="font-weight:bold;vertical-align:top;">applications_parent</td><td style="vertical-align:top;">:</td><td><div>/home/mtk/Dropbox/diff/newsite/web2py</div></td></tr><tr><td style="font-weight:bold;vertical-align:top;">cmd_args</td><td style="vertical-align:top;">:</td><td><div><table></table></div></td></tr><tr><td style="font-weight:bold;vertical-align:top;">cmd_options</td><td style="vertical-align:top;">:</td><td><div>&lt;Values at 0xb60ae38c: {&#x27;verbose&#x27;: False, &#x27;ip&#x27;: &#x27;127.0.0.1&#x27;, &#x27;debuglevel&#x27;: 30, &#x27;with_scheduler&#x27;: False, &#x27;shutdown_timeout&#x27;: 5, &#x27;taskbar&#x27;: False, &#x27;with_coverage&#x27;: False, &#x27;pid_filename&#x27;: &#x27;httpserver.pid&#x27;, &#x27;maxthreads&#x27;: None, &#x27;softcron&#x27;: False, &#x27;server_name&#x27;: &#x27;mtk-Inspiron-1525&#x27;, &#x27;bpython&#x27;: False, &#x27;nogui&#x27;: False, &#x27;port&#x27;: 8000, &#x27;print_errors&#x27;: False, &#x27;extcron&#x27;: False, &#x27;runcron&#x27;: False, &#x27;run_system_tests&#x27;: False, &#x27;test&#x27;: None, &#x27;folder&#x27;: &#x27;/home/mtk/Dropbox/diff/newsite/web2py&#x27;, &#x27;config&#x27;: &#x27;&#x27;, &#x27;minthreads&#x27;: None, &#x27;shell&#x27;: None, &#x27;run&#x27;: &#x27;&#x27;, &#x27;log_filename&#x27;: &#x27;httpserver.log&#x27;, &#x27;profiler_dir&#x27;: None, &#x27;args&#x27;: [&#x27;&#x27;], &#x27;socket_timeout&#x27;: 5, &#x27;ssl_ca_certificate&#x27;: None, &#x27;scheduler&#x27;: None, &#x27;interfaces&#x27;: None, &#x27;ssl_private_key&#x27;: &#x27;&#x27;, &#x27;gae&#x27;: None, &#x27;password&#x27;: &#x27;******&#x27;, &#x27;request_queue_size&#x27;: 5, &#x27;ssl_certificate&#x27;: &#x27;&#x27;, &#x27;cronjob&#x27;: False, &#x27;numthreads&#x27;: None, &#x27;quiet&#x27;: False, &#x27;import_models&#x27;: False, &#x27;timeout&#x27;: 10, &#x27;plain&#x27;: False, &#x27;nobanner&#x27;: False}&gt;</div></td></tr><tr><td style="font-weight:bold;vertical-align:top;">db_sessions</td><td style="vertical-align:top;">:</td><td><div>set([])</div></td></tr><tr><td style="font-weight:bold;vertical-align:top;">debugging</td><td style="vertical-align:top;">:</td><td><div>False</div></td></tr><tr><td style="font-weight:bold;vertical-align:top;">gluon_parent</td><td style="vertical-align:top;">:</td><td><div>/home/mtk/Dropbox/diff/newsite/web2py</div></td></tr><tr><td style="font-weight:bold;vertical-align:top;">http_accept</td><td style="vertical-align:top;">:</td><td><div>text/html,application/xhtml+xml,application/xml;q=0.9,image/webp,*/*;q=0.8</div></td></tr><tr><td style="font-weight:bold;vertical-align:top;">http_accept_encoding</td><td style="vertical-align:top;">:</td><td><div>gzip, deflate, sdch</div></td></tr><tr><td style="font-weight:bold;vertical-align:top;">http_accept_language</td><td style="vertical-align:top;">:</td><td><div>en-US,en;q=0.8</div></td></tr><tr><td style="font-weight:bold;vertical-align:top;">http_connection</td><td style="vertical-align:top;">:</td><td><div>keep-alive</div></td></tr><tr><td style="font-weight:bold;vertical-align:top;">http_cookie</td><td style="vertical-align:top;">:</td><td><div>session_id_welcome=127.0.0.1-e9001a12-220d-4b6e-9bd3-b9d4cc6f3d07; session_id_admin=127.0.0.1-e36b403c-e4c4-474d-894e-5abb870286c5; session_id_difflet=127.0.0.1-559c66ea-c86a-4d42-9b93-5d9d80ad0772</div></td></tr><tr><td style="font-weight:bold;vertical-align:top;">http_dnt</td><td style="vertical-align:top;">:</td><td><div>1</div></td></tr><tr><td style="font-weight:bold;vertical-align:top;">http_host</td><td style="vertical-align:top;">:</td><td><div>127.0.0.1:8000</div></td></tr><tr><td style="font-weight:bold;vertical-align:top;">http_referer</td><td style="vertical-align:top;">:</td><td><div>http://127.0.0.1:8000/difflet/default/search</div></td></tr><tr><td style="font-weight:bold;vertical-align:top;">http_upgrade_insecure_requests</td><td style="vertical-align:top;">:</td><td><div>1</div></td></tr><tr><td style="font-weight:bold;vertical-align:top;">http_user_agent</td><td style="vertical-align:top;">:</td><td><div>Mozilla/5.0 (X11; Linux i686) AppleWebKit/537.36 (KHTML, like Gecko) Ubuntu Chromium/52.0.2743.116 Chrome/52.0.2743.116 Safari/537.36</div></td></tr><tr><td style="font-weight:bold;vertical-align:top;">is_jython</td><td style="vertical-align:top;">:</td><td><div>False</div></td></tr><tr><td style="font-weight:bold;vertical-align:top;">is_pypy</td><td style="vertical-align:top;">:</td><td><div>False</div></td></tr><tr><td style="font-weight:bold;vertical-align:top;">is_source</td><td style="vertical-align:top;">:</td><td><div>True</div></td></tr><tr><td style="font-weight:bold;vertical-align:top;">local_hosts</td><td style="vertical-align:top;">:</td><td><div><table><tr><td><div>::1</div></td></tr><tr><td><div>127.0.1.1</div></td></tr><tr><td><div>mtk-Inspiron-1525</div></td></tr><tr><td><div>::ffff:127.0.0.1</div></td></tr><tr><td><div>127.0.0.1</div></td></tr></table></div></td></tr><tr><td style="font-weight:bold;vertical-align:top;">path_info</td><td style="vertical-align:top;">:</td><td><div>/difflet/default/difflet</div></td></tr><tr><td style="font-weight:bold;vertical-align:top;">query_string</td><td style="vertical-align:top;">:</td><td><div>e1=jalebi&amp;e2=samosa</div></td></tr><tr><td style="font-weight:bold;vertical-align:top;">remote_addr</td><td style="vertical-align:top;">:</td><td><div>127.0.0.1</div></td></tr><tr><td style="font-weight:bold;vertical-align:top;">remote_port</td><td style="vertical-align:top;">:</td><td><div>52042</div></td></tr><tr><td style="font-weight:bold;vertical-align:top;">request_method</td><td style="vertical-align:top;">:</td><td><div>GET</div></td></tr><tr><td style="font-weight:bold;vertical-align:top;">request_uri</td><td style="vertical-align:top;">:</td><td><div>/difflet/default/difflet?e1=jalebi&amp;e2=samosa</div></td></tr><tr><td style="font-weight:bold;vertical-align:top;">script_name</td><td style="vertical-align:top;">:</td><td><div></div></td></tr><tr><td style="font-weight:bold;vertical-align:top;">server_name</td><td style="vertical-align:top;">:</td><td><div>mtk-Inspiron-1525</div></td></tr><tr><td style="font-weight:bold;vertical-align:top;">server_port</td><td style="vertical-align:top;">:</td><td><div>8000</div></td></tr><tr><td style="font-weight:bold;vertical-align:top;">server_protocol</td><td style="vertical-align:top;">:</td><td><div>HTTP/1.1</div></td></tr><tr><td style="font-weight:bold;vertical-align:top;">server_software</td><td style="vertical-align:top;">:</td><td><div>Rocket 1.2.6</div></td></tr><tr><td style="font-weight:bold;vertical-align:top;">web2py_path</td><td style="vertical-align:top;">:</td><td><div>/home/mtk/Dropbox/diff/newsite/web2py</div></td></tr><tr><td style="font-weight:bold;vertical-align:top;">web2py_version</td><td style="vertical-align:top;">:</td><td><div>2.14.6-stable+timestamp.2016.05.10.00.21.47</div></td></tr><tr><td style="font-weight:bold;vertical-align:top;">wsgi.errors</td><td style="vertical-align:top;">:</td><td><div>&lt;open file &#x27;&lt;stderr&gt;&#x27;, mode &#x27;w&#x27; at 0xb73720d0&gt;</div></td></tr><tr><td style="font-weight:bold;vertical-align:top;">wsgi.file_wrapper</td><td style="vertical-align:top;">:</td><td><div>&lt;class wsgiref.util.FileWrapper at 0xb60eedac&gt;</div></td></tr><tr><td style="font-weight:bold;vertical-align:top;">wsgi.input</td><td style="vertical-align:top;">:</td><td><div>&lt;socket._fileobject object at 0xaeeb82ec&gt;</div></td></tr><tr><td style="font-weight:bold;vertical-align:top;">wsgi.multiprocess</td><td style="vertical-align:top;">:</td><td><div>False</div></td></tr><tr><td style="font-weight:bold;vertical-align:top;">wsgi.multithread</td><td style="vertical-align:top;">:</td><td><div>True</div></td></tr><tr><td style="font-weight:bold;vertical-align:top;">wsgi.run_once</td><td style="vertical-align:top;">:</td><td><div>False</div></td></tr><tr><td style="font-weight:bold;vertical-align:top;">wsgi.url_scheme</td><td style="vertical-align:top;">:</td><td><div>http</div></td></tr><tr><td style="font-weight:bold;vertical-align:top;">wsgi.version</td><td style="vertical-align:top;">:</td><td><div><table><tr><td><div>1</div></td></tr><tr><td><div>0</div></td></tr></table></div></td></tr><tr><td style="font-weight:bold;vertical-align:top;">wsgi_errors</td><td style="vertical-align:top;">:</td><td><div>&lt;open file &#x27;&lt;stderr&gt;&#x27;, mode &#x27;w&#x27; at 0xb73720d0&gt;</div></td></tr><tr><td style="font-weight:bold;vertical-align:top;">wsgi_file_wrapper</td><td style="vertical-align:top;">:</td><td><div>&lt;class wsgiref.util.FileWrapper at 0xb60eedac&gt;</div></td></tr><tr><td style="font-weight:bold;vertical-align:top;">wsgi_input</td><td style="vertical-align:top;">:</td><td><div>&lt;socket._fileobject object at 0xaeeb82ec&gt;</div></td></tr><tr><td style="font-weight:bold;vertical-align:top;">wsgi_multiprocess</td><td style="vertical-align:top;">:</td><td><div>False</div></td></tr><tr><td style="font-weight:bold;vertical-align:top;">wsgi_multithread</td><td style="vertical-align:top;">:</td><td><div>True</div></td></tr><tr><td style="font-weight:bold;vertical-align:top;">wsgi_run_once</td><td style="vertical-align:top;">:</td><td><div>False</div></td></tr><tr><td style="font-weight:bold;vertical-align:top;">wsgi_url_scheme</td><td style="vertical-align:top;">:</td><td><div>http</div></td></tr><tr><td style="font-weight:bold;vertical-align:top;">wsgi_version</td><td style="vertical-align:top;">:</td><td><div><table><tr><td><div>1</div></td></tr><tr><td><div>0</div></td></tr></table></div></td></tr></table></div></td></tr><tr><td style="font-weight:bold;vertical-align:top;">extension</td><td style="vertical-align:top;">:</td><td><div>html</div></td></tr><tr><td style="font-weight:bold;vertical-align:top;">folder</td><td style="vertical-align:top;">:</td><td><div>/home/mtk/Dropbox/diff/newsite/web2py/applications/difflet/</div></td></tr><tr><td style="font-weight:bold;vertical-align:top;">function</td><td style="vertical-align:top;">:</td><td><div>difflet</div></td></tr><tr><td style="font-weight:bold;vertical-align:top;">global_settings</td><td style="vertical-align:top;">:</td><td><div><table><tr><td style="font-weight:bold;vertical-align:top;">app_folders</td><td style="vertical-align:top;">:</td><td><div>set([&#x27;/home/mtk/Dropbox/diff/newsite/web2py/applications/difflet/&#x27;])</div></td></tr><tr><td style="font-weight:bold;vertical-align:top;">applications_parent</td><td style="vertical-align:top;">:</td><td><div>/home/mtk/Dropbox/diff/newsite/web2py</div></td></tr><tr><td style="font-weight:bold;vertical-align:top;">cmd_args</td><td style="vertical-align:top;">:</td><td><div><table></table></div></td></tr><tr><td style="font-weight:bold;vertical-align:top;">cmd_options</td><td style="vertical-align:top;">:</td><td><div>&lt;Values at 0xb60ae38c: {&#x27;verbose&#x27;: False, &#x27;ip&#x27;: &#x27;127.0.0.1&#x27;, &#x27;debuglevel&#x27;: 30, &#x27;with_scheduler&#x27;: False, &#x27;shutdown_timeout&#x27;: 5, &#x27;taskbar&#x27;: False, &#x27;with_coverage&#x27;: False, &#x27;pid_filename&#x27;: &#x27;httpserver.pid&#x27;, &#x27;maxthreads&#x27;: None, &#x27;softcron&#x27;: False, &#x27;server_name&#x27;: &#x27;mtk-Inspiron-1525&#x27;, &#x27;bpython&#x27;: False, &#x27;nogui&#x27;: False, &#x27;port&#x27;: 8000, &#x27;print_errors&#x27;: False, &#x27;extcron&#x27;: False, &#x27;runcron&#x27;: False, &#x27;run_system_tests&#x27;: False, &#x27;test&#x27;: None, &#x27;folder&#x27;: &#x27;/home/mtk/Dropbox/diff/newsite/web2py&#x27;, &#x27;config&#x27;: &#x27;&#x27;, &#x27;minthreads&#x27;: None, &#x27;shell&#x27;: None, &#x27;run&#x27;: &#x27;&#x27;, &#x27;log_filename&#x27;: &#x27;httpserver.log&#x27;, &#x27;profiler_dir&#x27;: None, &#x27;args&#x27;: [&#x27;&#x27;], &#x27;socket_timeout&#x27;: 5, &#x27;ssl_ca_certificate&#x27;: None, &#x27;scheduler&#x27;: None, &#x27;interfaces&#x27;: None, &#x27;ssl_private_key&#x27;: &#x27;&#x27;, &#x27;gae&#x27;: None, &#x27;password&#x27;: &#x27;******&#x27;, &#x27;request_queue_size&#x27;: 5, &#x27;ssl_certificate&#x27;: &#x27;&#x27;, &#x27;cronjob&#x27;: False, &#x27;numthreads&#x27;: None, &#x27;quiet&#x27;: False, &#x27;import_models&#x27;: False, &#x27;timeout&#x27;: 10, &#x27;plain&#x27;: False, &#x27;nobanner&#x27;: False}&gt;</div></td></tr><tr><td style="font-weight:bold;vertical-align:top;">db_sessions</td><td style="vertical-align:top;">:</td><td><div>set([])</div></td></tr><tr><td style="font-weight:bold;vertical-align:top;">debugging</td><td style="vertical-align:top;">:</td><td><div>False</div></td></tr><tr><td style="font-weight:bold;vertical-align:top;">gluon_parent</td><td style="vertical-align:top;">:</td><td><div>/home/mtk/Dropbox/diff/newsite/web2py</div></td></tr><tr><td style="font-weight:bold;vertical-align:top;">is_jython</td><td style="vertical-align:top;">:</td><td><div>False</div></td></tr><tr><td style="font-weight:bold;vertical-align:top;">is_pypy</td><td style="vertical-align:top;">:</td><td><div>False</div></td></tr><tr><td style="font-weight:bold;vertical-align:top;">is_source</td><td style="vertical-align:top;">:</td><td><div>True</div></td></tr><tr><td style="font-weight:bold;vertical-align:top;">local_hosts</td><td style="vertical-align:top;">:</td><td><div><table><tr><td><div>::1</div></td></tr><tr><td><div>127.0.1.1</div></td></tr><tr><td><div>mtk-Inspiron-1525</div></td></tr><tr><td><div>::ffff:127.0.0.1</div></td></tr><tr><td><div>127.0.0.1</div></td></tr></table></div></td></tr><tr><td style="font-weight:bold;vertical-align:top;">web2py_version</td><td style="vertical-align:top;">:</td><td><div>2.14.6-stable+timestamp.2016.05.10.00.21.47</div></td></tr></table></div></td></tr><tr><td style="font-weight:bold;vertical-align:top;">is_https</td><td style="vertical-align:top;">:</td><td><div>False</div></td></tr><tr><td style="font-weight:bold;vertical-align:top;">is_local</td><td style="vertical-align:top;">:</td><td><div>True</div></td></tr><tr><td style="font-weight:bold;vertical-align:top;">is_restful</td><td style="vertical-align:top;">:</td><td><div>False</div></td></tr><tr><td style="font-weight:bold;vertical-align:top;">is_scheduler</td><td style="vertical-align:top;">:</td><td><div>False</div></td></tr><tr><td style="font-weight:bold;vertical-align:top;">is_shell</td><td style="vertical-align:top;">:</td><td><div>False</div></td></tr><tr><td style="font-weight:bold;vertical-align:top;">now</td><td style="vertical-align:top;">:</td><td><div>datetime.datetime(2016, 11, 9, 12, 25, 10, 955802)</div></td></tr><tr><td style="font-weight:bold;vertical-align:top;">raw_args</td><td style="vertical-align:top;">:</td><td><div></div></td></tr><tr><td style="font-weight:bold;vertical-align:top;">raw_extension</td><td style="vertical-align:top;">:</td><td><div>None</div></td></tr><tr><td style="font-weight:bold;vertical-align:top;">url</td><td style="vertical-align:top;">:</td><td><div>/difflet/default/difflet</div></td></tr><tr><td style="font-weight:bold;vertical-align:top;">utcnow</td><td style="vertical-align:top;">:</td><td><div>datetime.datetime(2016, 11, 9, 6, 55, 10, 955845)</div></td></tr><tr><td style="font-weight:bold;vertical-align:top;">wsgi</td><td style="vertical-align:top;">:</td><td><div>&lt;gluon.main.LazyWSGI object at 0xae6c3f6c&gt;</div></td></tr></table></div>'
tRp58
sS'frames'
p59
(lp60
(dp61
S'file'
p62
S'/home/mtk/Dropbox/diff/newsite/web2py/gluon/restricted.py'
p63
sS'dump'
p64
(dp65
S'environment'
p66
S"{'A': <class 'gluon.html.A'>, 'ANY_OF': <class 'gluon.validators.ANY_OF'>, 'ASSIGNJS': <function ASSIGNJS>, 'AppConfig': <function AppConfig>, 'Auth': <class 'gluon.tools.Auth'>, 'B': <class 'gluon.html.B'>, 'BEAUTIFY': <class 'gluon.html.BEAUTIFY'>, 'BODY': <class 'gluon.html.BODY'>, 'BR': <class 'gluon.html.BR'>, 'BUTTON': <class 'gluon.html.BUTTON'>, ...}"
p67
sS'ccode'
p68
S'<code object <module> at 0xb4ed5728, file "/home...ions/difflet/views/default/difflet.html", line 1>'
p69
ssS'lnum'
p70
I227
sS'lines'
p71
(dp72
I224
S'            ccode = code'
p73
sI225
S'        else:'
p74
sI226
S'            ccode = compile2(code, layer)'
p75
sI227
S'        exec ccode in environment'
p76
sI228
S'    except HTTP:'
p77
sI229
S'        raise'
p78
sI230
S'    except RestrictedError:'
p79
sI231
S'        # do not encapsulate (obfuscate) the original RestrictedError'
p80
sI222
S'    try:'
p81
sI223
S'        if isinstance(code, types.CodeType):'
p82
ssS'call'
p83
S'(code=\'response.write(\\\'<!DOCTYPE html>\\\\n<!--[if (gt IE ..."></script>\\\\n  </body>\\\\n</html>\\\\n\\\', escape=False)\', environment={\'A\': <class \'gluon.html.A\'>, \'ANY_OF\': <class \'gluon.validators.ANY_OF\'>, \'ASSIGNJS\': <function ASSIGNJS>, \'AppConfig\': <function AppConfig>, \'Auth\': <class \'gluon.tools.Auth\'>, \'B\': <class \'gluon.html.B\'>, \'BEAUTIFY\': <class \'gluon.html.BEAUTIFY\'>, \'BODY\': <class \'gluon.html.BODY\'>, \'BR\': <class \'gluon.html.BR\'>, \'BUTTON\': <class \'gluon.html.BUTTON\'>, ...}, layer=\'/home/mtk/Dropbox/diff/newsite/web2py/applications/difflet/views/default/difflet.html\')'
p84
sS'func'
p85
S'restricted'
p86
sa(dp87
g62
S'/home/mtk/Dropbox/diff/newsite/web2py/applications/difflet/views/default/difflet.html'
p88
sg64
(dp89
S'div'
p90
S'undefined'
p91
ssg70
I83
sg71
(dp92
I74
S'response.write(\'">\\n        \', escape=False)'
p93
sI75
S"response.write('\\n        ', escape=False)"
p94
sI76
S'response.write(\'\\n\\n<div class="main">\\n  <div class="row heading">\\n    <div class="col-md-2"></div>\\n    <div class="col-md-4 hleftPane">\', escape=False)'
p95
sI77
S'response.write(e1.capitalize())'
p96
sI78
S'response.write(\'</div>\\n    <div class="col-md-4 hrightPane">\', escape=False)'
p97
sI79
S'response.write(e2.capitalize())'
p98
sI80
S"response.write(' </div>\\n  </div>\\n\\n  ', escape=False)"
p99
sI81
S"if 'img' in output:"
p100
sI82
S'    response.write(\'\\n    <div class="row">\\n        <div class="col-md-4"></div>\\n        <div class="col-md-4 dp \', escape=False)'
p101
sI83
S"    response.write('secondOnwards' if i > 0 else 'firstdp')"
p102
sI84
S'    response.write(\'" data-id="\', escape=False)'
p103
sI85
S'    response.write(i)'
p104
sI86
S'    response.write(\'">\\n          <span class="btn btn-primary btn-large" style="text-transform: none">Image</span>\\n        </div>\\n    </div>\\n\\n    <div class="row row\', escape=False)'
p105
sI87
S'    response.write(i)'
p106
sI88
S'    response.write(\'">\\n        <div class="col-md-2"></div>\\n        <div class="col-md-4 leftPane">\\n            <img src="\', escape=False)'
p107
sI89
S"    response.write(output['img'][0])"
p108
sI90
S'    response.write(\'" style="border: 1px solid gray;"/>\\n        </div>\\n        <div class="col-md-4 rightPane">\\n            <img src="\', escape=False)'
p109
sI91
S"    response.write(output['img'][1])"
p110
sI92
S'    response.write(\'" style="border: 1px solid gray;"/>\\n        </div>\\n        <div class="col-md-2"></div>\\n    </div>\\n    \', escape=False)'
p111
sI93
S"    del output['img']"
p112
ssg83
S'()'
p113
sg85
S'<module>'
p114
sasS'pyver'
p115
S'Python 2.7.12: /home/mtk/.anaconda2/bin/python (prefix: /home/mtk/.anaconda2)'
p116
sS'session'
p117
g57
(S's\x1a\x00\x00\x00<div><table></table></div>'
tRp118
sS'etype'
p119
S"<type 'exceptions.NameError'>"
p120
sS'date'
p121
S'Wed Nov  9 12:25:28 2016'
p122
sS'response'
p123
g57
(S's\xde\x1e\x00\x00<div><table><tr><td style="font-weight:bold;vertical-align:top;">body</td><td style="vertical-align:top;">:</td><td><div>&lt;cStringIO.StringO object at 0xae6c33a0&gt;</div></td></tr><tr><td style="font-weight:bold;vertical-align:top;">cookies</td><td style="vertical-align:top;">:</td><td><div><table><tr><td style="font-weight:bold;vertical-align:top;">session_id_difflet</td><td style="vertical-align:top;">:</td><td><div>127.0.0.1-be049ac7-d653-4558-b6bc-3c7a82ad8716<table><tr><td style="font-weight:bold;vertical-align:top;">comment</td><td style="vertical-align:top;">:</td><td><div></div></td></tr><tr><td style="font-weight:bold;vertical-align:top;">domain</td><td style="vertical-align:top;">:</td><td><div></div></td></tr><tr><td style="font-weight:bold;vertical-align:top;">expires</td><td style="vertical-align:top;">:</td><td><div></div></td></tr><tr><td style="font-weight:bold;vertical-align:top;">httponly</td><td style="vertical-align:top;">:</td><td><div></div></td></tr><tr><td style="font-weight:bold;vertical-align:top;">max-age</td><td style="vertical-align:top;">:</td><td><div></div></td></tr><tr><td style="font-weight:bold;vertical-align:top;">path</td><td style="vertical-align:top;">:</td><td><div>/</div></td></tr><tr><td style="font-weight:bold;vertical-align:top;">secure</td><td style="vertical-align:top;">:</td><td><div></div></td></tr><tr><td style="font-weight:bold;vertical-align:top;">version</td><td style="vertical-align:top;">:</td><td><div></div></td></tr></table></div></td></tr></table></div></td></tr><tr><td style="font-weight:bold;vertical-align:top;">delimiters</td><td style="vertical-align:top;">:</td><td><div><table><tr><td><div>{{</div></td></tr><tr><td><div>}}</div></td></tr></table></div></td></tr><tr><td style="font-weight:bold;vertical-align:top;">files</td><td style="vertical-align:top;">:</td><td><div><table><tr><td><div>/difflet/static/js/jquery.js</div></td></tr><tr><td><div>/difflet/static/css/calendar.css</div></td></tr><tr><td><div>/difflet/static/js/calendar.js</div></td></tr><tr><td><div>/difflet/static/js/web2py.js</div></td></tr></table></div></td></tr><tr><td style="font-weight:bold;vertical-align:top;">flash</td><td style="vertical-align:top;">:</td><td><div>No data found on wikipedia directly.</div></td></tr><tr><td style="font-weight:bold;vertical-align:top;">form_label_separator</td><td style="vertical-align:top;">:</td><td><div></div></td></tr><tr><td style="font-weight:bold;vertical-align:top;">formstyle</td><td style="vertical-align:top;">:</td><td><div>bootstrap3_inline</div></td></tr><tr><td style="font-weight:bold;vertical-align:top;">generic_patterns</td><td style="vertical-align:top;">:</td><td><div><table><tr><td><div>*</div></td></tr></table></div></td></tr><tr><td style="font-weight:bold;vertical-align:top;">google_analytics_id</td><td style="vertical-align:top;">:</td><td><div>None</div></td></tr><tr><td style="font-weight:bold;vertical-align:top;">headers</td><td style="vertical-align:top;">:</td><td><div><table><tr><td style="font-weight:bold;vertical-align:top;">X-Powered-By</td><td style="vertical-align:top;">:</td><td><div>web2py</div></td></tr></table></div></td></tr><tr><td style="font-weight:bold;vertical-align:top;">logo</td><td style="vertical-align:top;">:</td><td><div><a class="navbar-brand" href="/difflet" id="web2py-logo"><b>diff<span>L</span>et</b>&trade;&nbsp;</a></div></td></tr><tr><td style="font-weight:bold;vertical-align:top;">menu</td><td style="vertical-align:top;">:</td><td><div><table><tr><td><div><table><tr><td><div>Home</div></td></tr><tr><td><div>False</div></td></tr><tr><td><div>/difflet/default/index</div></td></tr><tr><td><div><table></table></div></td></tr></table></div></td></tr><tr><td><div><table><tr><td><div>Search</div></td></tr><tr><td><div>False</div></td></tr><tr><td><div>/difflet/default/search</div></td></tr><tr><td><div><table></table></div></td></tr></table></div></td></tr><tr><td><div><table><tr><td><div>About</div></td></tr><tr><td><div>False</div></td></tr><tr><td><div>/difflet/default/about</div></td></tr><tr><td><div><table></table></div></td></tr></table></div></td></tr></table></div></td></tr><tr><td style="font-weight:bold;vertical-align:top;">meta</td><td style="vertical-align:top;">:</td><td><div><table><tr><td style="font-weight:bold;vertical-align:top;">author</td><td style="vertical-align:top;">:</td><td><div>Md Tareque Khan , Harshendra Avabratha</div></td></tr><tr><td style="font-weight:bold;vertical-align:top;">description</td><td style="vertical-align:top;">:</td><td><div>difference between any entities</div></td></tr><tr><td style="font-weight:bold;vertical-align:top;">generator</td><td style="vertical-align:top;">:</td><td><div>difflet point by point comparision</div></td></tr><tr><td style="font-weight:bold;vertical-align:top;">keywords</td><td style="vertical-align:top;">:</td><td><div>difference between, diff, difflet, point by point comparision</div></td></tr></table></div></td></tr><tr><td style="font-weight:bold;vertical-align:top;">models_to_run</td><td style="vertical-align:top;">:</td><td><div><table><tr><td><div>^\\w+\\.py$</div></td></tr><tr><td><div>^default/\\w+\\.py$</div></td></tr><tr><td><div>^default/difflet/\\w+\\.py$</div></td></tr></table></div></td></tr><tr><td style="font-weight:bold;vertical-align:top;">postprocessing</td><td style="vertical-align:top;">:</td><td><div><table></table></div></td></tr><tr><td style="font-weight:bold;vertical-align:top;">session_client</td><td style="vertical-align:top;">:</td><td><div>127.0.0.1</div></td></tr><tr><td style="font-weight:bold;vertical-align:top;">session_cookie_compression_level</td><td style="vertical-align:top;">:</td><td><div>None</div></td></tr><tr><td style="font-weight:bold;vertical-align:top;">session_cookie_expires</td><td style="vertical-align:top;">:</td><td><div>None</div></td></tr><tr><td style="font-weight:bold;vertical-align:top;">session_data_name</td><td style="vertical-align:top;">:</td><td><div>session_data_difflet</div></td></tr><tr><td style="font-weight:bold;vertical-align:top;">session_file</td><td style="vertical-align:top;">:</td><td><div>None</div></td></tr><tr><td style="font-weight:bold;vertical-align:top;">session_filename</td><td style="vertical-align:top;">:</td><td><div>/home/mtk/Dropbox/diff/newsite/web2py/applications/difflet/sessions/127.0.0.1-be049ac7-d653-4558-b6bc-3c7a82ad8716</div></td></tr><tr><td style="font-weight:bold;vertical-align:top;">session_hash</td><td style="vertical-align:top;">:</td><td><div>c0762cbf4baf7f9af97c051e7fcb8083</div></td></tr><tr><td style="font-weight:bold;vertical-align:top;">session_id</td><td style="vertical-align:top;">:</td><td><div>127.0.0.1-be049ac7-d653-4558-b6bc-3c7a82ad8716</div></td></tr><tr><td style="font-weight:bold;vertical-align:top;">session_id_name</td><td style="vertical-align:top;">:</td><td><div>session_id_difflet</div></td></tr><tr><td style="font-weight:bold;vertical-align:top;">session_masterapp</td><td style="vertical-align:top;">:</td><td><div>difflet</div></td></tr><tr><td style="font-weight:bold;vertical-align:top;">session_new</td><td style="vertical-align:top;">:</td><td><div>True</div></td></tr><tr><td style="font-weight:bold;vertical-align:top;">session_storage_type</td><td style="vertical-align:top;">:</td><td><div>file</div></td></tr><tr><td style="font-weight:bold;vertical-align:top;">status</td><td style="vertical-align:top;">:</td><td><div>200</div></td></tr><tr><td style="font-weight:bold;vertical-align:top;">subtitle</td><td style="vertical-align:top;">:</td><td><div></div></td></tr><tr><td style="font-weight:bold;vertical-align:top;">title</td><td style="vertical-align:top;">:</td><td><div>Difflet</div></td></tr><tr><td style="font-weight:bold;vertical-align:top;">view</td><td style="vertical-align:top;">:</td><td><div>default/difflet.html</div></td></tr></table></div>'
tRp124
sS'locals'
p125
(dp126
S'Service'
p127
S"<class 'gluon.tools.Service'>"
p128
sS'OBJECT'
p129
S"<class 'gluon.html.OBJECT'>"
p130
sS'SQLDB'
p131
S"<class 'pydal.base.DAL'>"
p132
sg117
S'<Storage {}>'
p133
sS'LINK'
p134
S"<class 'gluon.html.LINK'>"
p135
sS'BR'
p136
S"<class 'gluon.html.BR'>"
p137
sS'local_import'
p138
S'<function <lambda>>'
p139
sS'OPTGROUP'
p140
S"<class 'gluon.html.OPTGROUP'>"
p141
sS'__package__'
p142
S'None'
p143
sS'q1'
p144
S"<Query ((((listings.thing = thing.id) AND (listi... = description.id)) AND (thing.name = 'jalebi'))>"
p145
sS'IS_INT_IN_RANGE'
p146
S"<class 'gluon.validators.IS_INT_IN_RANGE'>"
p147
sS'q2'
p148
S"<Query ((((listings.thing = thing.id) AND (listi... = description.id)) AND (thing.name = 'samosa'))>"
p149
sS'left_sidebar_enabled'
p150
S'False'
p151
sS'IS_LOWER'
p152
S"<class 'gluon.validators.IS_LOWER'>"
p153
sS'IS_STRONG'
p154
S"<class 'gluon.validators.IS_STRONG'>"
p155
sS'cache'
p156
S'<gluon.cache.Cache object>'
p157
sS'IS_IN_DB'
p158
S"<class 'gluon.validators.IS_IN_DB'>"
p159
sS'TAG'
p160
S'<gluon.html.__TAG__ object>'
p161
sS'did1'
p162
S'480L'
p163
sS'did2'
p164
S'481L'
p165
sS'SQLField'
p166
S"<class 'pydal.objects.Field'>"
p167
sS'mail'
p168
S'<gluon.tools.Mail object>'
p169
sS'popular_searches'
p170
S"[('ganges', 'nile', 57L), ('india', 'italy', 29L), ('indonesia', 'italy', 24L), ('india', 'indonesia', 15L)]"
p171
sS'BODY'
p172
S"<class 'gluon.html.BODY'>"
p173
sS'IS_DATE_IN_RANGE'
p174
S"<class 'gluon.validators.IS_DATE_IN_RANGE'>"
p175
sS'IFRAME'
p176
S"<class 'gluon.html.IFRAME'>"
p177
sS'URL'
p178
S'<function URL>'
p179
sS'__file__'
p180
S"'/home/mtk/Dropbox/diff/newsite/web2py/applications/difflet/views/default/difflet.html'"
p181
sS'db'
p182
S'<DAL uri="mysql:******@localhost/difflet_db">'
p183
sS'auth'
p184
S'<gluon.tools.Auth object>'
p185
sS'P'
S"<class 'gluon.html.P'>"
p186
sS'TFOOT'
p187
S"<class 'gluon.html.TFOOT'>"
p188
sS'XHTML'
p189
S"<class 'gluon.html.XHTML'>"
p190
sS'ON'
p191
S'True'
p192
sS'OL'
p193
S"<class 'gluon.html.OL'>"
p194
sS'TEXTAREA'
p195
S"<class 'gluon.html.TEXTAREA'>"
p196
sS'did'
p197
S'479L'
p198
sS'MENU'
p199
S"<class 'gluon.html.MENU'>"
p200
sS'common'
p201
S'[]'
p202
sS'IS_IMAGE'
p203
S"<class 'gluon.validators.IS_IMAGE'>"
p204
sg2
S"{'img': (u'https://upload.wikimedia.org/wikipedia/commons/1/1c/Awadhi_jalebi.jpg', u'https://upload.wikimedia.org/wikipedia/commons/c/cb/Samosachutney.jpg')}"
p205
sS'EM'
p206
S"<class 'gluon.html.EM'>"
p207
sS'CODE'
p208
S"<class 'gluon.html.CODE'>"
p209
sS'HTTP'
p210
S"<class 'gluon.http.HTTP'>"
p211
sS'HR'
p212
S"<class 'gluon.html.HR'>"
p213
sS'IS_DATETIME'
p214
S"<class 'gluon.validators.IS_DATETIME'>"
p215
sS'STYLE'
p216
S"<class 'gluon.html.STYLE'>"
p217
sS'LABEL'
p218
S"<class 'gluon.html.LABEL'>"
p219
sS'CLEANUP'
p220
S"<class 'gluon.validators.CLEANUP'>"
p221
sS'plugins'
p222
S'<gluon.tools.PluginManager object>'
p223
sS'e2_dp_id'
p224
S'[]'
p225
sS'SELECT'
p226
S"<class 'gluon.html.SELECT'>"
p227
sS'CENTER'
p228
S"<class 'gluon.html.CENTER'>"
p229
sS'redirect'
p230
S'<function redirect>'
p231
sS'Auth'
p232
S"<class 'gluon.tools.Auth'>"
p233
sS'DEVELOPMENT_MENU'
p234
g151
sS'__builtins__'
p235
S"{'ArithmeticError': <type 'exceptions.ArithmeticError'>, 'AssertionError': <type 'exceptions.AssertionError'>, 'AttributeError': <type 'exceptions.AttributeError'>, 'BaseException': <type 'exceptions.BaseException'>, 'BufferError': <type 'exceptions.BufferError'>, 'BytesWarning': <type 'exceptions.BytesWarning'>, 'DeprecationWarning': <type 'exceptions.DeprecationWarning'>, 'EOFError': <type 'exceptions.EOFError'>, 'Ellipsis': Ellipsis, 'EnvironmentError': <type 'exceptions.EnvironmentError'>, ...}"
p236
sS'HTML'
p237
S"<class 'gluon.html.HTML'>"
p238
sS'SQLFORM'
p239
S"<class 'gluon.sqlhtml.SQLFORM'>"
p240
sS'_v1url'
p241
S"u'https://www.youtube.com/embed/igjB9YB9Xig?rel=0'"
p242
sS'LOAD'
p243
S'<function LOAD>'
p244
sS'PRE'
p245
S"<class 'gluon.html.PRE'>"
p246
sS'FIELDSET'
p247
S"<class 'gluon.html.FIELDSET'>"
p248
sS'IS_EQUAL_TO'
p249
S"<class 'gluon.validators.IS_EQUAL_TO'>"
p250
sS'embed64'
p251
S'<function embed64>'
p252
sS'IS_LIST_OF'
p253
S"<class 'gluon.validators.IS_LIST_OF'>"
p254
sS'e1id'
p255
S'91L'
p256
sS'__name__'
p257
S"'__restricted__'"
p258
sS'EMBED'
p259
S"<class 'gluon.html.EMBED'>"
p260
sS'e1'
p261
S"'jalebi'"
p262
sS'_'
S'<function _>'
p263
sS'e2'
p264
S"'samosa'"
p265
sS'myconf'
p266
S"{'forms': {'formstyle': 'bootstrap3_inline', 'se...': {'names': 'localhost:*, 127.0.0.1:*, *:*, *'}}"
p267
sS'H2'
p268
S"<class 'gluon.html.H2'>"
p269
sS'H3'
p270
S"<class 'gluon.html.H3'>"
p271
sS'AppConfig'
p272
S'<function AppConfig>'
p273
sS'H1'
p274
S"<class 'gluon.html.H1'>"
p275
sS'H6'
p276
S"<class 'gluon.html.H6'>"
p277
sS'H4'
p278
S"<class 'gluon.html.H4'>"
p279
sS'H5'
p280
S"<class 'gluon.html.H5'>"
p281
sS'UL'
p282
S"<class 'gluon.html.UL'>"
p283
sS'IS_UPPER'
p284
S"<class 'gluon.validators.IS_UPPER'>"
p285
sS'urls'
p286
S"[('jalebi', u'https://www.youtube.com/embed/igjB9YB9Xig?rel=0'), ('samosa', u'https://www.youtube.com/embed/mOOr1Rj0as0?rel=0')]"
p287
sS'xmlescape'
p288
S'<function xmlescape>'
p289
sS'IS_TIME'
p290
S"<class 'gluon.validators.IS_TIME'>"
p291
sS'v1url'
p292
S"u'https://www.youtube.com/embed/igjB9YB9Xig?rel=0'"
p293
sS'OPTION'
p294
S"<class 'gluon.html.OPTION'>"
p295
sS'TITLE'
p296
S"<class 'gluon.html.TITLE'>"
p297
sS'CRYPT'
p298
S"<class 'gluon.validators.CRYPT'>"
p299
sS'e1_dp_id'
p300
S'[]'
p301
sS'IS_EMPTY_OR'
p302
S"<class 'gluon.validators.IS_EMPTY_OR'>"
p303
sS'MARKMIN'
p304
S"<class 'gluon.html.MARKMIN'>"
p305
sS'one'
p306
g45
sS'INPUT'
p307
S"<class 'gluon.html.INPUT'>"
p308
sS'STRONG'
p309
S"<class 'gluon.html.STRONG'>"
p310
sS'COL'
p311
S"<class 'gluon.html.COL'>"
p312
sS'mc1'
p313
S"'col-md-9'"
p314
sS'mc0'
p315
S"'col-md-12'"
p316
sS'service'
p317
S'<gluon.tools.Service object>'
p318
sS'SCRIPT'
p319
S"<class 'gluon.html.SCRIPT'>"
p320
sS'two'
p321
g45
sS'TABLE'
p322
S"<class 'gluon.html.TABLE'>"
p323
sS'IS_IPV4'
p324
S"<class 'gluon.validators.IS_IPV4'>"
p325
sS'IS_LENGTH'
p326
S"<class 'gluon.validators.IS_LENGTH'>"
p327
sS'IS_IPV6'
p328
S"<class 'gluon.validators.IS_IPV6'>"
p329
sS'XML'
p330
S"<class 'gluon.html.XML'>"
p331
sS'B'
S"<class 'gluon.html.B'>"
p332
sS'IMG'
p333
S"<class 'gluon.html.IMG'>"
p334
sS'SQLTABLE'
p335
S"<class 'gluon.sqlhtml.SQLTABLE'>"
p336
sS'IS_MATCH'
p337
S"<class 'gluon.validators.IS_MATCH'>"
p338
sS'IS_ALPHANUMERIC'
p339
S"<class 'gluon.validators.IS_ALPHANUMERIC'>"
p340
sS'diffvideo'
p341
g192
sS'find_video'
p342
S'<function find_video>'
p343
sS'getdata'
p344
S'<function getdata>'
p345
sS'SPAN'
p346
S"<class 'gluon.html.SPAN'>"
p347
sS'IS_JSON'
p348
S"<class 'gluon.validators.IS_JSON'>"
p349
sS'IS_IPADDRESS'
p350
S"<class 'gluon.validators.IS_IPADDRESS'>"
p351
sS'IS_SLUG'
p352
S"<class 'gluon.validators.IS_SLUG'>"
p353
sS'BEAUTIFY'
p354
S"<class 'gluon.html.BEAUTIFY'>"
p355
sS'META'
p356
S"<class 'gluon.html.META'>"
p357
sS'BUTTON'
p358
S"<class 'gluon.html.BUTTON'>"
p359
sS'IS_DATE'
p360
S"<class 'gluon.validators.IS_DATE'>"
p361
sS'IS_EMAIL'
p362
S"<class 'gluon.validators.IS_EMAIL'>"
p363
sS'middle_column'
p364
S"'col-md-12'"
p365
sS'IS_NOT_EMPTY'
p366
S"<class 'gluon.validators.IS_NOT_EMPTY'>"
p367
sS'IS_FLOAT_IN_RANGE'
p368
S"<class 'gluon.validators.IS_FLOAT_IN_RANGE'>"
p369
sS'pid'
p370
S'<Rows (1)>'
p371
sS'TBODY'
p372
S"<class 'gluon.html.TBODY'>"
p373
sS'CAT'
p374
S"<class 'gluon.html.CAT'>"
p375
sS'e2rows'
p376
S'<Rows (0)>'
p377
sS'Field'
p378
S"<class 'pydal.objects.Field'>"
p379
sS'mc2'
p380
S"'col-md-6'"
p381
sS'IS_LIST_OF_EMAILS'
p382
S"<class 'gluon.validators.IS_LIST_OF_EMAILS'>"
p383
sS'e2id'
p384
S'92L'
p385
sS'DIV'
p386
S"<class 'gluon.html.DIV'>"
p387
sS'LEGEND'
p388
S"<class 'gluon.html.LEGEND'>"
p389
sS'v2url'
p390
S"u'https://www.youtube.com/embed/mOOr1Rj0as0?rel=0'"
p391
sS'COLGROUP'
p392
S"<class 'gluon.html.COLGROUP'>"
p393
sS'DAL'
p394
S"<class 'pydal.base.DAL'>"
p395
sS'ASSIGNJS'
p396
S'<function ASSIGNJS>'
p397
sS'TR'
p398
S"<class 'gluon.html.TR'>"
p399
sS'indexpath'
p400
S"'/home/mtk/Dropbox/diff/newsite/web2py/applications/difflet/private/index'"
p401
sS'LI'
p402
S"<class 'gluon.html.LI'>"
p403
sS'right_sidebar_enabled'
p404
g151
sS'_v2url'
p405
S"u'https://www.youtube.com/embed/mOOr1Rj0as0?rel=0'"
p406
sS'TH'
p407
S"<class 'gluon.html.TH'>"
p408
sS'TD'
p409
S"<class 'gluon.html.TD'>"
p410
sS'PluginManager'
p411
S"<class 'gluon.tools.PluginManager'>"
p412
sS'IS_URL'
p413
S"<class 'gluon.validators.IS_URL'>"
p414
sS'A'
S"<class 'gluon.html.A'>"
p415
sS'HEAD'
p416
S"<class 'gluon.html.HEAD'>"
p417
sS'IS_DATETIME_IN_RANGE'
p418
S"<class 'gluon.validators.IS_DATETIME_IN_RANGE'>"
p419
sS'FORM'
p420
S"<class 'gluon.html.FORM'>"
p421
sS'i1'
p422
S"u'https://upload.wikimedia.org/wikipedia/commons/1/1c/Awadhi_jalebi.jpg'"
p423
sS'i2'
p424
S"u'https://upload.wikimedia.org/wikipedia/commons/c/cb/Samosachutney.jpg'"
p425
sS'IS_NOT_IN_DB'
p426
S"<class 'gluon.validators.IS_NOT_IN_DB'>"
p427
sg123
S"<Storage {'body': <cStringIO.StringO object at 0... at 0xae6f687c>, 'view': 'default/difflet.html'}>"
p428
sS'THEAD'
p429
S"<class 'gluon.html.THEAD'>"
p430
sS'ANY_OF'
p431
S"<class 'gluon.validators.ANY_OF'>"
p432
sS'IS_NULL_OR'
p433
S"<class 'gluon.validators.IS_EMPTY_OR'>"
p434
sS'e1rows'
p435
S'<Rows (0)>'
p436
sS'I'
S"<class 'gluon.html.I'>"
p437
sS'getImage'
p438
S'<function getImage>'
p439
sg56
S"<Storage {'_vars': <Storage {'e1': 'jalebi', 'e2...pbox/diff/newsite/web2py/applications/difflet/'}>"
p440
sS'IS_EXPR'
p441
S"<class 'gluon.validators.IS_EXPR'>"
p442
sS'T'
S'<gluon.languages.translator object>'
p443
sS'IS_IN_SET'
p444
S"<class 'gluon.validators.IS_IN_SET'>"
p445
sS'IS_UPLOAD_FILENAME'
p446
S"<class 'gluon.validators.IS_UPLOAD_FILENAME'>"
p447
sS'TT'
p448
S"<class 'gluon.html.TT'>"
p449
sS'IS_DECIMAL_IN_RANGE'
p450
S"<class 'gluon.validators.IS_DECIMAL_IN_RANGE'>"
p451
sssS'traceback'
p452
S'Traceback (most recent call last):\n  File "/home/mtk/Dropbox/diff/newsite/web2py/gluon/restricted.py", line 227, in restricted\n    exec ccode in environment\n  File "/home/mtk/Dropbox/diff/newsite/web2py/applications/difflet/views/default/difflet.html", line 83, in <module>\n    </div>\nNameError: name \'i\' is not defined\n'
p453
s.